; ModuleID = '/afs/vlsilab.boeblingen.ibm.com/proj/fpga/framework/dcelik/GitRepo/snap_fork/actions/hls_data_transfer/hw/hlsDoubleMult_xcku060-ffva1156-2-e/doublemult/.autopilot/db/a.o.3.bc'
target datalayout = "e-p:64:64:64-i1:8:8-i8:8:8-i16:16:16-i32:32:32-i64:64:64-f32:32:32-f64:64:64-v64:64:64-v128:128:128-a0:0:64-s0:64:64-f80:128:128-n8:16:32:64-S128"
target triple = "x86_64-unknown-linux-gnu"

@llvm_global_ctors_1 = appending global [1 x void ()*] [void ()* @_GLOBAL__I_a] ; [#uses=0 type=[1 x void ()*]*]
@llvm_global_ctors_0 = appending global [1 x i32] [i32 65535] ; [#uses=0 type=[1 x i32]*]
@hls_action_str = internal unnamed_addr constant [11 x i8] c"hls_action\00" ; [#uses=1 type=[11 x i8]*]
@p_str9 = private unnamed_addr constant [6 x i8] c"0x100\00", align 1 ; [#uses=1 type=[6 x i8]*]
@p_str8 = private unnamed_addr constant [6 x i8] c"0x010\00", align 1 ; [#uses=1 type=[6 x i8]*]
@p_str7 = private unnamed_addr constant [6 x i8] c"0x040\00", align 1 ; [#uses=1 type=[6 x i8]*]
@p_str6 = private unnamed_addr constant [6 x i8] c"0x030\00", align 1 ; [#uses=1 type=[6 x i8]*]
@p_str5 = private unnamed_addr constant [9 x i8] c"ctrl_reg\00", align 1 ; [#uses=5 type=[9 x i8]*]
@p_str4 = private unnamed_addr constant [10 x i8] c"s_axilite\00", align 1 ; [#uses=5 type=[10 x i8]*]
@p_str3 = private unnamed_addr constant [6 x i8] c"slave\00", align 1 ; [#uses=3 type=[6 x i8]*]
@p_str2 = private unnamed_addr constant [9 x i8] c"host_mem\00", align 1 ; [#uses=3 type=[9 x i8]*]
@p_str1 = private unnamed_addr constant [1 x i8] zeroinitializer, align 1 ; [#uses=33 type=[1 x i8]*]
@p_str = private unnamed_addr constant [6 x i8] c"m_axi\00", align 1 ; [#uses=3 type=[6 x i8]*]

; [#uses=1]
define internal fastcc i9 @process_action(i512* %din_gmem_V, i58 %din_gmem_V1, i58 %dout_gmem_V3, i64 %act_reg_Data_in_addr, i32 %act_reg_Data_in_size, i64 %act_reg_Data_out_add) {
  %act_reg_Data_out_add_1 = call i64 @_ssdm_op_Read.ap_auto.i64(i64 %act_reg_Data_out_add) ; [#uses=1 type=i64]
  call void @llvm.dbg.value(metadata !{i64 %act_reg_Data_out_add_1}, i64 0, metadata !65), !dbg !3008 ; [debug line = 80:18] [debug variable = act_reg.Data.out.addr]
  %act_reg_Data_in_size_1 = call i32 @_ssdm_op_Read.ap_auto.i32(i32 %act_reg_Data_in_size) ; [#uses=1 type=i32]
  call void @llvm.dbg.value(metadata !{i32 %act_reg_Data_in_size_1}, i64 0, metadata !3009), !dbg !3008 ; [debug line = 80:18] [debug variable = act_reg.Data.in.size]
  %act_reg_Data_in_addr_1 = call i64 @_ssdm_op_Read.ap_auto.i64(i64 %act_reg_Data_in_addr) ; [#uses=1 type=i64]
  call void @llvm.dbg.value(metadata !{i64 %act_reg_Data_in_addr_1}, i64 0, metadata !3017), !dbg !3008 ; [debug line = 80:18] [debug variable = act_reg.Data.in.addr]
  %dout_gmem_V3_read = call i58 @_ssdm_op_Read.ap_auto.i58(i58 %dout_gmem_V3) ; [#uses=1 type=i58]
  %din_gmem_V1_read = call i58 @_ssdm_op_Read.ap_auto.i58(i58 %din_gmem_V1) ; [#uses=1 type=i58]
  call void (...)* @_ssdm_op_SpecInterface(i512* %din_gmem_V, [6 x i8]* @p_str, i32 0, i32 0, [1 x i8]* @p_str1, i32 0, i32 512, [9 x i8]* @p_str2, [6 x i8]* @p_str3, [1 x i8]* @p_str1, i32 16, i32 16, i32 64, i32 64, [1 x i8]* @p_str1, [1 x i8]* @p_str1)
  call void (...)* @_ssdm_op_SpecInterface(i512* %din_gmem_V, [6 x i8]* @p_str, i32 0, i32 0, [1 x i8]* @p_str1, i32 0, i32 512, [9 x i8]* @p_str2, [6 x i8]* @p_str3, [1 x i8]* @p_str1, i32 16, i32 16, i32 64, i32 64, [1 x i8]* @p_str1, [1 x i8]* @p_str1)
  call void @llvm.dbg.value(metadata !{i512* %din_gmem_V}, i64 0, metadata !3018), !dbg !3027 ; [debug line = 77:42] [debug variable = din_gmem.V]
  call void @llvm.dbg.value(metadata !{i512* %din_gmem_V}, i64 0, metadata !3028), !dbg !3030 ; [debug line = 78:21] [debug variable = dout_gmem.V]
  call void @llvm.dbg.value(metadata !{i64 %act_reg_Data_in_addr}, i64 0, metadata !3017), !dbg !3008 ; [debug line = 80:18] [debug variable = act_reg.Data.in.addr]
  call void @llvm.dbg.value(metadata !{i32 %act_reg_Data_in_size}, i64 0, metadata !3009), !dbg !3008 ; [debug line = 80:18] [debug variable = act_reg.Data.in.size]
  call void @llvm.dbg.value(metadata !{i64 %act_reg_Data_out_add}, i64 0, metadata !65), !dbg !3008 ; [debug line = 80:18] [debug variable = act_reg.Data.out.addr]
  %tmp = call i58 @_ssdm_op_PartSelect.i58.i64.i32.i32(i64 %act_reg_Data_in_addr_1, i32 6, i32 63), !dbg !3031 ; [#uses=1 type=i58] [debug line = 86:2]
  %i_idx_1_cast = zext i58 %tmp to i59, !dbg !3031 ; [#uses=1 type=i59] [debug line = 86:2]
  %tmp_3 = call i58 @_ssdm_op_PartSelect.i58.i64.i32.i32(i64 %act_reg_Data_out_add_1, i32 6, i32 63), !dbg !3033 ; [#uses=1 type=i58] [debug line = 87:2]
  %o_idx_1_cast = zext i58 %tmp_3 to i59, !dbg !3033 ; [#uses=1 type=i59] [debug line = 87:2]
  call void @llvm.dbg.value(metadata !{i32 %act_reg_Data_in_size}, i64 0, metadata !3034), !dbg !3035 ; [debug line = 88:2] [debug variable = size]
  %tmp_4 = call i28 @_ssdm_op_PartSelect.i28.i32.i32.i32(i32 %act_reg_Data_in_size_1, i32 4, i32 31), !dbg !3036 ; [#uses=1 type=i28] [debug line = 90:2]
  %icmp = icmp eq i28 %tmp_4, 0, !dbg !3036       ; [#uses=1 type=i1] [debug line = 90:2]
  br i1 %icmp, label %2, label %1, !dbg !3036     ; [debug line = 90:2]

; <label>:1                                       ; preds = %0
  %din_gmem_V1_cast = zext i58 %din_gmem_V1_read to i59 ; [#uses=1 type=i59]
  %sum = add i59 %din_gmem_V1_cast, %i_idx_1_cast ; [#uses=1 type=i59]
  %sum_cast = zext i59 %sum to i64                ; [#uses=1 type=i64]
  %dout_gmem_V_addr = getelementptr i512* %din_gmem_V, i64 %sum_cast, !dbg !3037 ; [#uses=2 type=i512*] [debug line = 277:10@98:3]
  %buffer_in_V_req = call i1 @_ssdm_op_ReadReq.m_axi.i512P(i512* %dout_gmem_V_addr, i32 1), !dbg !3037 ; [#uses=0 type=i1] [debug line = 277:10@98:3]
  %buffer_in_V = call i512 @_ssdm_op_Read.m_axi.i512P(i512* %dout_gmem_V_addr), !dbg !3037 ; [#uses=4 type=i512] [debug line = 277:10@98:3]
  call void @llvm.dbg.value(metadata !{i512 %buffer_in_V}, i64 0, metadata !3042), !dbg !3037 ; [debug line = 277:10@98:3] [debug variable = buffer_in.V]
  call void @llvm.dbg.value(metadata !{i512 %buffer_in_V}, i64 0, metadata !3044), !dbg !3059 ; [debug line = 1151:93@944:16@38:23@101:3] [debug variable = __Val2__]
  %tmp_beta = call i64 @_ssdm_op_PartSelect.i64.i512.i32.i32(i512 %buffer_in_V, i32 128, i32 191), !dbg !3060 ; [#uses=1 type=i64] [debug line = 1151:95@944:16@38:23@101:3]
  call void @llvm.dbg.value(metadata !{i64 %tmp_beta}, i64 0, metadata !3061), !dbg !3051 ; [debug line = 38:23@101:3] [debug variable = tmp_beta]
  %tmp_gamma = call i64 @_ssdm_op_PartSelect.i64.i512.i32.i32(i512 %buffer_in_V, i32 192, i32 255), !dbg !3062 ; [#uses=1 type=i64] [debug line = 1151:95@944:16@39:24@101:3]
  call void @llvm.dbg.value(metadata !{i64 %tmp_gamma}, i64 0, metadata !3065), !dbg !3064 ; [debug line = 39:24@101:3] [debug variable = tmp_gamma]
  %tmp_theta = call i64 @_ssdm_op_PartSelect.i64.i512.i32.i32(i512 %buffer_in_V, i32 256, i32 319), !dbg !3066 ; [#uses=1 type=i64] [debug line = 1151:95@944:16@40:24@101:3]
  call void @llvm.dbg.value(metadata !{i64 %tmp_theta}, i64 0, metadata !3069), !dbg !3068 ; [debug line = 40:24@101:3] [debug variable = tmp_theta]
  %beta = bitcast i64 %tmp_beta to double, !dbg !3070 ; [#uses=1 type=double] [debug line = 48:2@101:3]
  %gamma = bitcast i64 %tmp_gamma to double, !dbg !3071 ; [#uses=1 type=double] [debug line = 49:2@101:3]
  %theta = bitcast i64 %tmp_theta to double, !dbg !3072 ; [#uses=1 type=double] [debug line = 50:2@101:3]
  call void @llvm.dbg.value(metadata !{double %beta}, i64 0, metadata !3073), !dbg !3074 ; [debug line = 31:56@101:3] [debug variable = ptr_beta]
  call void @llvm.dbg.value(metadata !{double %gamma}, i64 0, metadata !3075), !dbg !3076 ; [debug line = 31:74@101:3] [debug variable = ptr_gamma]
  call void @llvm.dbg.value(metadata !{double %theta}, i64 0, metadata !3077), !dbg !3078 ; [debug line = 31:93@101:3] [debug variable = ptr_theta]
  call void @llvm.dbg.value(metadata !{double %beta}, i64 0, metadata !3079), !dbg !3058 ; [debug line = 101:3] [debug variable = beta]
  call void @llvm.dbg.value(metadata !{double %gamma}, i64 0, metadata !3080), !dbg !3058 ; [debug line = 101:3] [debug variable = gamma]
  call void @llvm.dbg.value(metadata !{double %theta}, i64 0, metadata !3081), !dbg !3058 ; [debug line = 101:3] [debug variable = theta]
  %tmp_1 = fmul double %beta, %gamma, !dbg !3082  ; [#uses=1 type=double] [debug line = 104:3]
  %product = fmul double %tmp_1, %theta, !dbg !3082 ; [#uses=1 type=double] [debug line = 104:3]
  call void @llvm.dbg.value(metadata !{double %product}, i64 0, metadata !3083), !dbg !3082 ; [debug line = 104:3] [debug variable = product]
  %val_assign = bitcast double %product to i64    ; [#uses=1 type=i64]
  call void @llvm.dbg.value(metadata !{i64 %val_assign}, i64 0, metadata !3084), !dbg !3089 ; [debug line = 59:44@107:16] [debug variable = val]
  call void @llvm.dbg.value(metadata !{i64 %tmp_beta}, i64 0, metadata !3090), !dbg !3091 ; [debug line = 59:56@107:16] [debug variable = beta]
  call void @llvm.dbg.value(metadata !{i64 %tmp_gamma}, i64 0, metadata !3092), !dbg !3093 ; [debug line = 59:69@107:16] [debug variable = gamma]
  call void @llvm.dbg.value(metadata !{i64 %tmp_theta}, i64 0, metadata !3094), !dbg !3095 ; [debug line = 59:83@107:16] [debug variable = theta]
  call void @llvm.dbg.value(metadata !{i64 %val_assign}, i64 0, metadata !3096), !dbg !3100 ; [debug line = 947:88@63:2@107:16] [debug variable = val]
  call void @llvm.dbg.value(metadata !{i64 %val_assign}, i64 0, metadata !3101), !dbg !3105 ; [debug line = 2411:73@948:43@63:2@107:16] [debug variable = op]
  call void @llvm.dbg.value(metadata !{i64 %val_assign}, i64 0, metadata !3106), !dbg !3109 ; [debug line = 2411:73@2411:93@948:43@63:2@107:16] [debug variable = op]
  call void @llvm.dbg.value(metadata !{i64 %tmp_beta}, i64 0, metadata !3110), !dbg !3112 ; [debug line = 947:88@65:2@107:16] [debug variable = val]
  call void @llvm.dbg.value(metadata !{i64 %tmp_beta}, i64 0, metadata !3113), !dbg !3115 ; [debug line = 2411:73@948:43@65:2@107:16] [debug variable = op]
  call void @llvm.dbg.value(metadata !{i64 %tmp_beta}, i64 0, metadata !3116), !dbg !3118 ; [debug line = 2411:73@2411:93@948:43@65:2@107:16] [debug variable = op]
  call void @llvm.dbg.value(metadata !{i64 %tmp_gamma}, i64 0, metadata !3119), !dbg !3121 ; [debug line = 947:88@66:2@107:16] [debug variable = val]
  call void @llvm.dbg.value(metadata !{i64 %tmp_gamma}, i64 0, metadata !3122), !dbg !3124 ; [debug line = 2411:73@948:43@66:2@107:16] [debug variable = op]
  call void @llvm.dbg.value(metadata !{i64 %tmp_gamma}, i64 0, metadata !3125), !dbg !3127 ; [debug line = 2411:73@2411:93@948:43@66:2@107:16] [debug variable = op]
  call void @llvm.dbg.value(metadata !{i64 %tmp_theta}, i64 0, metadata !3128), !dbg !3130 ; [debug line = 947:88@67:2@107:16] [debug variable = val]
  call void @llvm.dbg.value(metadata !{i64 %tmp_theta}, i64 0, metadata !3131), !dbg !3133 ; [debug line = 2411:73@948:43@67:2@107:16] [debug variable = op]
  call void @llvm.dbg.value(metadata !{i64 %tmp_theta}, i64 0, metadata !3134), !dbg !3136 ; [debug line = 2411:73@2411:93@948:43@67:2@107:16] [debug variable = op]
  %tmp_2 = call i192 @_ssdm_op_PartSelect.i192.i512.i32.i32(i512 %buffer_in_V, i32 128, i32 319), !dbg !3137 ; [#uses=1 type=i192] [debug line = 949:119@67:2@107:16]
  %p_Result_s = call i512 @_ssdm_op_BitConcatenate.i512.i192.i192.i64.i64(i192 0, i192 %tmp_2, i64 0, i64 %val_assign), !dbg !3137 ; [#uses=1 type=i512] [debug line = 949:119@67:2@107:16]
  call void @llvm.dbg.value(metadata !{i512 %p_Result_s}, i64 0, metadata !3139), !dbg !3137 ; [debug line = 949:119@67:2@107:16] [debug variable = __Result__]
  call void @llvm.dbg.value(metadata !{i512 %p_Result_s}, i64 0, metadata !3140), !dbg !3143 ; [debug line = 949:236@67:2@107:16] [debug variable = mem.V]
  call void @llvm.dbg.value(metadata !{i512 %p_Result_s}, i64 0, metadata !3144), !dbg !3146 ; [debug line = 277:10@107:16] [debug variable = buffer_out.V]
  %dout_gmem_V3_cast = zext i58 %dout_gmem_V3_read to i59 ; [#uses=1 type=i59]
  %sum3 = add i59 %dout_gmem_V3_cast, %o_idx_1_cast ; [#uses=1 type=i59]
  %sum3_cast = zext i59 %sum3 to i64              ; [#uses=1 type=i64]
  %dout_gmem_V_addr_1 = getelementptr i512* %din_gmem_V, i64 %sum3_cast, !dbg !3147 ; [#uses=3 type=i512*] [debug line = 277:10@111:3]
  %dout_gmem_V_addr_1_r = call i1 @_ssdm_op_WriteReq.m_axi.i512P(i512* %dout_gmem_V_addr_1, i32 1), !dbg !3147 ; [#uses=0 type=i1] [debug line = 277:10@111:3]
  call void @_ssdm_op_Write.m_axi.i512P(i512* %dout_gmem_V_addr_1, i512 %p_Result_s, i64 -1), !dbg !3147 ; [debug line = 277:10@111:3]
  %dout_gmem_V_addr_1_r_1 = call i1 @_ssdm_op_WriteResp.m_axi.i512P(i512* %dout_gmem_V_addr_1), !dbg !3147 ; [#uses=0 type=i1] [debug line = 277:10@111:3]
  br label %2, !dbg !3149                         ; [debug line = 114:2]

; <label>:2                                       ; preds = %1, %0
  %act_reg_Control_Retc = phi i9 [ -254, %1 ], [ -252, %0 ] ; [#uses=1 type=i9]
  call void @llvm.dbg.value(metadata !{i9 %act_reg_Control_Retc}, i64 0, metadata !3150), !dbg !3008 ; [debug line = 80:18] [debug variable = act_reg.Control.Retc.V]
  ret i9 %act_reg_Control_Retc
}

; [#uses=1]
declare i992 @llvm.part.set.i992.i32(i992, i32, i32, i32) nounwind readnone

; [#uses=3]
declare i992 @llvm.part.select.i992(i992, i32, i32) nounwind readnone

; [#uses=1]
declare i64 @llvm.part.select.i64(i64, i32, i32) nounwind readnone

; [#uses=2]
declare i512 @llvm.part.select.i512(i512, i32, i32) nounwind readnone

; [#uses=1]
declare i32 @llvm.part.select.i32(i32, i32, i32) nounwind readnone

; [#uses=47]
declare void @llvm.dbg.value(metadata, i64, metadata) nounwind readnone

; [#uses=0]
define void @hls_action(i512* %host_mem, i64 %din_gmem_V, i64 %dout_gmem_V, i992* %act_reg, i64* %Action_Config) {
  %dout_gmem_V_read = call i64 @_ssdm_op_Read.s_axilite.i64(i64 %dout_gmem_V) ; [#uses=1 type=i64]
  call void @llvm.dbg.value(metadata !{i64 %dout_gmem_V_read}, i64 0, metadata !3162), !dbg !3173 ; [debug line = 122:18] [debug variable = dout_gmem.V]
  %din_gmem_V_read = call i64 @_ssdm_op_Read.s_axilite.i64(i64 %din_gmem_V) ; [#uses=1 type=i64]
  call void @llvm.dbg.value(metadata !{i64 %din_gmem_V_read}, i64 0, metadata !3174), !dbg !3176 ; [debug line = 121:32] [debug variable = din_gmem.V]
  %dout_gmem_V3 = call i58 @_ssdm_op_PartSelect.i58.i64.i32.i32(i64 %dout_gmem_V_read, i32 6, i32 63) ; [#uses=1 type=i58]
  %din_gmem_V1 = call i58 @_ssdm_op_PartSelect.i58.i64.i32.i32(i64 %din_gmem_V_read, i32 6, i32 63) ; [#uses=1 type=i58]
  call void (...)* @_ssdm_op_SpecBitsMap(i512* %host_mem), !map !3177
  call void (...)* @_ssdm_op_SpecBitsMap(i992* %act_reg), !map !3184
  call void (...)* @_ssdm_op_SpecBitsMap(i64* %Action_Config), !map !3604
  call void (...)* @_ssdm_op_SpecTopModule([11 x i8]* @hls_action_str) nounwind
  call void @llvm.dbg.value(metadata !{i64 %din_gmem_V}, i64 0, metadata !3174), !dbg !3176 ; [debug line = 121:32] [debug variable = din_gmem.V]
  call void @llvm.dbg.value(metadata !{i64 %dout_gmem_V}, i64 0, metadata !3162), !dbg !3173 ; [debug line = 122:18] [debug variable = dout_gmem.V]
  call void @llvm.dbg.value(metadata !{i992* %act_reg}, i64 0, metadata !3611), !dbg !3679 ; [debug line = 124:15] [debug variable = act_reg]
  call void @llvm.dbg.value(metadata !{i64* %Action_Config}, i64 0, metadata !3680), !dbg !3687 ; [debug line = 125:25] [debug variable = Action_Config]
  call void (...)* @_ssdm_op_SpecInterface(i512* %host_mem, [6 x i8]* @p_str, i32 0, i32 0, [1 x i8]* @p_str1, i32 0, i32 512, [9 x i8]* @p_str2, [6 x i8]* @p_str3, [1 x i8]* @p_str1, i32 16, i32 16, i32 64, i32 64, [1 x i8]* @p_str1, [1 x i8]* @p_str1) nounwind, !dbg !3688 ; [debug line = 128:1]
  call void (...)* @_ssdm_op_SpecInterface(i64 %din_gmem_V, [10 x i8]* @p_str4, i32 0, i32 0, [1 x i8]* @p_str1, i32 0, i32 0, [9 x i8]* @p_str5, [6 x i8]* @p_str6, [1 x i8]* @p_str1, i32 0, i32 0, i32 0, i32 0, [1 x i8]* @p_str1, [1 x i8]* @p_str1) nounwind, !dbg !3690 ; [debug line = 130:1]
  call void (...)* @_ssdm_op_SpecInterface(i64 %dout_gmem_V, [10 x i8]* @p_str4, i32 0, i32 0, [1 x i8]* @p_str1, i32 0, i32 0, [9 x i8]* @p_str5, [6 x i8]* @p_str7, [1 x i8]* @p_str1, i32 0, i32 0, i32 0, i32 0, [1 x i8]* @p_str1, [1 x i8]* @p_str1) nounwind, !dbg !3691 ; [debug line = 134:1]
  call void (...)* @_ssdm_op_SpecInterface(i64* %Action_Config, [10 x i8]* @p_str4, i32 0, i32 0, [1 x i8]* @p_str1, i32 0, i32 0, [9 x i8]* @p_str5, [6 x i8]* @p_str8, [1 x i8]* @p_str1, i32 0, i32 0, i32 0, i32 0, [1 x i8]* @p_str1, [1 x i8]* @p_str1) nounwind
  call void (...)* @_ssdm_op_SpecInterface(i992* %act_reg, [10 x i8]* @p_str4, i32 0, i32 0, [1 x i8]* @p_str1, i32 0, i32 0, [9 x i8]* @p_str5, [6 x i8]* @p_str9, [1 x i8]* @p_str1, i32 0, i32 0, i32 0, i32 0, [1 x i8]* @p_str1, [1 x i8]* @p_str1) nounwind
  call void (...)* @_ssdm_op_SpecInterface(i32 0, [10 x i8]* @p_str4, i32 0, i32 0, [1 x i8]* @p_str1, i32 0, i32 0, [9 x i8]* @p_str5, [1 x i8]* @p_str1, [1 x i8]* @p_str1, i32 0, i32 0, i32 0, i32 0, [1 x i8]* @p_str1, [1 x i8]* @p_str1) nounwind, !dbg !3692 ; [debug line = 146:1]
  %act_reg_read = call i992 @_ssdm_op_Read.s_axilite.i992P(i992* %act_reg), !dbg !3693 ; [#uses=4 type=i992] [debug line = 1653:70@152:10]
  %act_reg_Control_flag = call i8 @_ssdm_op_PartSelect.i8.i992.i32.i32(i992 %act_reg_read, i32 8, i32 15), !dbg !3693 ; [#uses=1 type=i8] [debug line = 1653:70@152:10]
  %cond = icmp eq i8 %act_reg_Control_flag, 0, !dbg !3696 ; [#uses=1 type=i1] [debug line = 152:10]
  br i1 %cond, label %1, label %2, !dbg !3696     ; [debug line = 152:10]

; <label>:1                                       ; preds = %0
  call void @_ssdm_op_Write.s_axilite.i64P(i64* %Action_Config, i64 142003671049), !dbg !3697 ; [debug line = 277:10@155:3]
  br label %3, !dbg !3702                         ; [debug line = 157:3]

; <label>:2                                       ; preds = %0
  %act_reg_Data_in_addr = call i64 @_ssdm_op_PartSelect.i64.i992.i32.i32(i992 %act_reg_read, i32 128, i32 191), !dbg !3703 ; [#uses=1 type=i64] [debug line = 161:10]
  %act_reg_Data_in_size = call i32 @_ssdm_op_PartSelect.i32.i992.i32.i32(i992 %act_reg_read, i32 192, i32 223), !dbg !3703 ; [#uses=1 type=i32] [debug line = 161:10]
  %act_reg_Data_out_add = call i64 @_ssdm_op_PartSelect.i64.i992.i32.i32(i992 %act_reg_read, i32 256, i32 319), !dbg !3703 ; [#uses=1 type=i64] [debug line = 161:10]
  %tmp_6 = call fastcc i9 @process_action(i512* %host_mem, i58 %din_gmem_V1, i58 %dout_gmem_V3, i64 %act_reg_Data_in_addr, i32 %act_reg_Data_in_size, i64 %act_reg_Data_out_add), !dbg !3703 ; [#uses=1 type=i9] [debug line = 161:10]
  %storemerge_trunc_ext = zext i9 %tmp_6 to i14, !dbg !3704 ; [#uses=1 type=i14] [debug line = 162:3]
  br label %3, !dbg !3704                         ; [debug line = 162:3]

; <label>:3                                       ; preds = %2, %1
  %storemerge = phi i14 [ %storemerge_trunc_ext, %2 ], [ -8177, %1 ] ; [#uses=1 type=i14]
  %storemerge_cast5 = sext i14 %storemerge to i16, !dbg !3705 ; [#uses=1 type=i16] [debug line = 277:10@156:3]
  %storemerge_cast1 = zext i16 %storemerge_cast5 to i32, !dbg !3705 ; [#uses=1 type=i32] [debug line = 277:10@156:3]
  %act_reg_read_1 = call i992 @_ssdm_op_Read.s_axilite.i992P(i992* %act_reg), !dbg !3705 ; [#uses=1 type=i992] [debug line = 277:10@156:3]
  %act_reg11_part_set = call i992 @llvm.part.set.i992.i32(i992 %act_reg_read_1, i32 %storemerge_cast1, i32 32, i32 63), !dbg !3705 ; [#uses=1 type=i992] [debug line = 277:10@156:3]
  call void @_ssdm_op_Write.s_axilite.i992P(i992* %act_reg, i992 %act_reg11_part_set), !dbg !3705 ; [debug line = 277:10@156:3]
  ret void, !dbg !3707                            ; [debug line = 164:1]
}

; [#uses=1]
define weak i1 @_ssdm_op_WriteResp.m_axi.i512P(i512*) {
entry:
  ret i1 true
}

; [#uses=1]
define weak i1 @_ssdm_op_WriteReq.m_axi.i512P(i512*, i32) {
entry:
  ret i1 true
}

; [#uses=1]
define weak void @_ssdm_op_Write.s_axilite.i992P(i992*, i992) {
entry:
  store i992 %1, i992* %0
  ret void
}

; [#uses=1]
define weak void @_ssdm_op_Write.s_axilite.i64P(i64*, i64) {
entry:
  store i64 %1, i64* %0
  ret void
}

; [#uses=1]
define weak void @_ssdm_op_Write.m_axi.i512P(i512*, i512, i64) {
entry:
  ret void
}

; [#uses=1]
define weak void @_ssdm_op_SpecTopModule(...) {
entry:
  ret void
}

; [#uses=8]
define weak void @_ssdm_op_SpecInterface(...) nounwind {
entry:
  ret void
}

; [#uses=3]
define weak void @_ssdm_op_SpecBitsMap(...) {
entry:
  ret void
}

; [#uses=1]
define weak i1 @_ssdm_op_ReadReq.m_axi.i512P(i512*, i32) {
entry:
  ret i1 true
}

; [#uses=2]
define weak i992 @_ssdm_op_Read.s_axilite.i992P(i992*) {
entry:
  %empty = load i992* %0                          ; [#uses=1 type=i992]
  ret i992 %empty
}

; [#uses=2]
define weak i64 @_ssdm_op_Read.s_axilite.i64(i64) {
entry:
  ret i64 %0
}

; [#uses=1]
define weak i512 @_ssdm_op_Read.m_axi.i512P(i512*) {
entry:
  %empty = load i512* %0                          ; [#uses=1 type=i512]
  ret i512 %empty
}

; [#uses=2]
define weak i64 @_ssdm_op_Read.ap_auto.i64(i64) {
entry:
  ret i64 %0
}

; [#uses=2]
define weak i58 @_ssdm_op_Read.ap_auto.i58(i58) {
entry:
  ret i58 %0
}

; [#uses=1]
define weak i32 @_ssdm_op_Read.ap_auto.i32(i32) {
entry:
  ret i32 %0
}

; [#uses=1]
define weak i8 @_ssdm_op_PartSelect.i8.i992.i32.i32(i992, i32, i32) nounwind readnone {
entry:
  %empty = call i992 @llvm.part.select.i992(i992 %0, i32 %1, i32 %2) ; [#uses=1 type=i992]
  %empty_13 = trunc i992 %empty to i8             ; [#uses=1 type=i8]
  ret i8 %empty_13
}

; [#uses=2]
define weak i64 @_ssdm_op_PartSelect.i64.i992.i32.i32(i992, i32, i32) nounwind readnone {
entry:
  %empty = call i992 @llvm.part.select.i992(i992 %0, i32 %1, i32 %2) ; [#uses=1 type=i992]
  %empty_14 = trunc i992 %empty to i64            ; [#uses=1 type=i64]
  ret i64 %empty_14
}

; [#uses=3]
define weak i64 @_ssdm_op_PartSelect.i64.i512.i32.i32(i512, i32, i32) nounwind readnone {
entry:
  %empty = call i512 @llvm.part.select.i512(i512 %0, i32 %1, i32 %2) ; [#uses=1 type=i512]
  %empty_15 = trunc i512 %empty to i64            ; [#uses=1 type=i64]
  ret i64 %empty_15
}

; [#uses=4]
define weak i58 @_ssdm_op_PartSelect.i58.i64.i32.i32(i64, i32, i32) nounwind readnone {
entry:
  %empty = call i64 @llvm.part.select.i64(i64 %0, i32 %1, i32 %2) ; [#uses=1 type=i64]
  %empty_16 = trunc i64 %empty to i58             ; [#uses=1 type=i58]
  ret i58 %empty_16
}

; [#uses=1]
define weak i32 @_ssdm_op_PartSelect.i32.i992.i32.i32(i992, i32, i32) nounwind readnone {
entry:
  %empty = call i992 @llvm.part.select.i992(i992 %0, i32 %1, i32 %2) ; [#uses=1 type=i992]
  %empty_17 = trunc i992 %empty to i32            ; [#uses=1 type=i32]
  ret i32 %empty_17
}

; [#uses=1]
define weak i28 @_ssdm_op_PartSelect.i28.i32.i32.i32(i32, i32, i32) nounwind readnone {
entry:
  %empty = call i32 @llvm.part.select.i32(i32 %0, i32 %1, i32 %2) ; [#uses=1 type=i32]
  %empty_18 = trunc i32 %empty to i28             ; [#uses=1 type=i28]
  ret i28 %empty_18
}

; [#uses=1]
define weak i192 @_ssdm_op_PartSelect.i192.i512.i32.i32(i512, i32, i32) nounwind readnone {
entry:
  %empty = call i512 @llvm.part.select.i512(i512 %0, i32 %1, i32 %2) ; [#uses=1 type=i512]
  %empty_19 = trunc i512 %empty to i192           ; [#uses=1 type=i192]
  ret i192 %empty_19
}

; [#uses=1]
define weak i512 @_ssdm_op_BitConcatenate.i512.i192.i192.i64.i64(i192, i192, i64, i64) nounwind readnone {
entry:
  %empty = zext i64 %2 to i128                    ; [#uses=1 type=i128]
  %empty_20 = zext i64 %3 to i128                 ; [#uses=1 type=i128]
  %empty_21 = shl i128 %empty, 64                 ; [#uses=1 type=i128]
  %empty_22 = or i128 %empty_21, %empty_20        ; [#uses=1 type=i128]
  %empty_23 = zext i192 %1 to i320                ; [#uses=1 type=i320]
  %empty_24 = zext i128 %empty_22 to i320         ; [#uses=1 type=i320]
  %empty_25 = shl i320 %empty_23, 128             ; [#uses=1 type=i320]
  %empty_26 = or i320 %empty_25, %empty_24        ; [#uses=1 type=i320]
  %empty_27 = zext i192 %0 to i512                ; [#uses=1 type=i512]
  %empty_28 = zext i320 %empty_26 to i512         ; [#uses=1 type=i512]
  %empty_29 = shl i512 %empty_27, 320             ; [#uses=1 type=i512]
  %empty_30 = or i512 %empty_29, %empty_28        ; [#uses=1 type=i512]
  ret i512 %empty_30
}

; [#uses=1]
declare void @_GLOBAL__I_a() nounwind section ".text.startup"

!opencl.kernels = !{!0, !7, !13, !13, !7, !7, !19, !22, !28, !32, !34, !34, !7, !37, !43, !43, !47, !7, !7, !53, !13, !13, !7}
!hls.encrypted.func = !{}
!llvm.map.gv = !{!55}
!axi4.master.portmap = !{!62}
!axi4.slave.bundlemap = !{!63, !64}

!0 = metadata !{null, metadata !1, metadata !2, metadata !3, metadata !4, metadata !5, metadata !6}
!1 = metadata !{metadata !"kernel_arg_addr_space", i32 1, i32 1, i32 1, i32 1}
!2 = metadata !{metadata !"kernel_arg_access_qual", metadata !"none", metadata !"none", metadata !"none", metadata !"none"}
!3 = metadata !{metadata !"kernel_arg_type", metadata !"snap_membus_t*", metadata !"snap_membus_t*", metadata !"action_reg*", metadata !"action_RO_config_reg*"}
!4 = metadata !{metadata !"kernel_arg_type_qual", metadata !"", metadata !"", metadata !"", metadata !""}
!5 = metadata !{metadata !"kernel_arg_name", metadata !"din_gmem", metadata !"dout_gmem", metadata !"act_reg", metadata !"Action_Config"}
!6 = metadata !{metadata !"reqd_work_group_size", i32 1, i32 1, i32 1}
!7 = metadata !{null, metadata !8, metadata !9, metadata !10, metadata !11, metadata !12, metadata !6}
!8 = metadata !{metadata !"kernel_arg_addr_space"}
!9 = metadata !{metadata !"kernel_arg_access_qual"}
!10 = metadata !{metadata !"kernel_arg_type"}
!11 = metadata !{metadata !"kernel_arg_type_qual"}
!12 = metadata !{metadata !"kernel_arg_name"}
!13 = metadata !{null, metadata !14, metadata !15, metadata !16, metadata !17, metadata !18, metadata !6}
!14 = metadata !{metadata !"kernel_arg_addr_space", i32 0}
!15 = metadata !{metadata !"kernel_arg_access_qual", metadata !"none"}
!16 = metadata !{metadata !"kernel_arg_type", metadata !"int"}
!17 = metadata !{metadata !"kernel_arg_type_qual", metadata !""}
!18 = metadata !{metadata !"kernel_arg_name", metadata !"val"}
!19 = metadata !{null, metadata !14, metadata !15, metadata !20, metadata !17, metadata !21, metadata !6}
!20 = metadata !{metadata !"kernel_arg_type", metadata !"const ap_uint<32> &"}
!21 = metadata !{metadata !"kernel_arg_name", metadata !"op2"}
!22 = metadata !{null, metadata !23, metadata !24, metadata !25, metadata !26, metadata !27, metadata !6}
!23 = metadata !{metadata !"kernel_arg_addr_space", i32 1, i32 1, i32 1}
!24 = metadata !{metadata !"kernel_arg_access_qual", metadata !"none", metadata !"none", metadata !"none"}
!25 = metadata !{metadata !"kernel_arg_type", metadata !"snap_membus_t*", metadata !"snap_membus_t*", metadata !"action_reg*"}
!26 = metadata !{metadata !"kernel_arg_type_qual", metadata !"", metadata !"", metadata !""}
!27 = metadata !{metadata !"kernel_arg_name", metadata !"din_gmem", metadata !"dout_gmem", metadata !"act_reg"}
!28 = metadata !{null, metadata !29, metadata !2, metadata !30, metadata !4, metadata !31, metadata !6}
!29 = metadata !{metadata !"kernel_arg_addr_space", i32 0, i32 0, i32 0, i32 0}
!30 = metadata !{metadata !"kernel_arg_type", metadata !"double", metadata !"double", metadata !"double", metadata !"double"}
!31 = metadata !{metadata !"kernel_arg_name", metadata !"val", metadata !"beta", metadata !"gamma", metadata !"theta"}
!32 = metadata !{null, metadata !14, metadata !15, metadata !33, metadata !17, metadata !18, metadata !6}
!33 = metadata !{metadata !"kernel_arg_type", metadata !"ulong long"}
!34 = metadata !{null, metadata !14, metadata !15, metadata !35, metadata !17, metadata !36, metadata !6}
!35 = metadata !{metadata !"kernel_arg_type", metadata !"ap_ulong"}
!36 = metadata !{metadata !"kernel_arg_name", metadata !"op"}
!37 = metadata !{null, metadata !38, metadata !39, metadata !40, metadata !41, metadata !42, metadata !6}
!38 = metadata !{metadata !"kernel_arg_addr_space", i32 0, i32 0}
!39 = metadata !{metadata !"kernel_arg_access_qual", metadata !"none", metadata !"none"}
!40 = metadata !{metadata !"kernel_arg_type", metadata !"int", metadata !"int"}
!41 = metadata !{metadata !"kernel_arg_type_qual", metadata !"", metadata !""}
!42 = metadata !{metadata !"kernel_arg_name", metadata !"Hi", metadata !"Lo"}
!43 = metadata !{null, metadata !44, metadata !24, metadata !45, metadata !26, metadata !46, metadata !6}
!44 = metadata !{metadata !"kernel_arg_addr_space", i32 1, i32 0, i32 0}
!45 = metadata !{metadata !"kernel_arg_type", metadata !"ap_int_base<512, false>*", metadata !"int", metadata !"int"}
!46 = metadata !{metadata !"kernel_arg_name", metadata !"bv", metadata !"h", metadata !"l"}
!47 = metadata !{null, metadata !48, metadata !49, metadata !50, metadata !51, metadata !52, metadata !6}
!48 = metadata !{metadata !"kernel_arg_addr_space", i32 0, i32 1, i32 1, i32 1, i32 1, i32 1, i32 1, i32 1, i32 1}
!49 = metadata !{metadata !"kernel_arg_access_qual", metadata !"none", metadata !"none", metadata !"none", metadata !"none", metadata !"none", metadata !"none", metadata !"none", metadata !"none", metadata !"none"}
!50 = metadata !{metadata !"kernel_arg_type", metadata !"snap_membus_t", metadata !"double*", metadata !"double*", metadata !"double*", metadata !"int*", metadata !"int*", metadata !"int*", metadata !"int*", metadata !"int*"}
!51 = metadata !{metadata !"kernel_arg_type_qual", metadata !"", metadata !"", metadata !"", metadata !"", metadata !"", metadata !"", metadata !"", metadata !"", metadata !""}
!52 = metadata !{metadata !"kernel_arg_name", metadata !"mem", metadata !"ptr_beta", metadata !"ptr_gamma", metadata !"ptr_theta", metadata !"ptr_cycles", metadata !"ptr_N", metadata !"ptr_M", metadata !"ptr_alpha", metadata !"ptr_padding"}
!53 = metadata !{null, metadata !14, metadata !15, metadata !54, metadata !17, metadata !21, metadata !6}
!54 = metadata !{metadata !"kernel_arg_type", metadata !"const ap_uint<512> &"}
!55 = metadata !{metadata !56, [1 x i32]* @llvm_global_ctors_0}
!56 = metadata !{metadata !57}
!57 = metadata !{i32 0, i32 31, metadata !58}
!58 = metadata !{metadata !59}
!59 = metadata !{metadata !"llvm.global_ctors.0", metadata !60, metadata !"", i32 0, i32 31}
!60 = metadata !{metadata !61}
!61 = metadata !{i32 0, i32 0, i32 1}
!62 = metadata !{metadata !"host_mem", metadata !"din_gmem.V", metadata !"READONLY", metadata !"dout_gmem.V", metadata !"WRITEONLY"}
!63 = metadata !{metadata !"din_gmem.V", metadata !"ctrl_reg"}
!64 = metadata !{metadata !"dout_gmem.V", metadata !"ctrl_reg"}
!65 = metadata !{i32 790533, metadata !66, metadata !"act_reg.Data.out.addr", null, i32 80, metadata !3001, i32 0, i32 0} ; [ DW_TAG_arg_variable_field_ro ]
!66 = metadata !{i32 786689, metadata !67, metadata !"act_reg", metadata !68, i32 50331728, metadata !507, i32 0, i32 0} ; [ DW_TAG_arg_variable ]
!67 = metadata !{i32 786478, i32 0, metadata !68, metadata !"process_action", metadata !"process_action", metadata !"_ZL14process_actionP7ap_uintILi512EES1_P10action_reg", metadata !68, i32 77, metadata !69, i1 true, i1 true, i32 0, i32 0, null, i32 256, i1 false, null, null, null, metadata !91, i32 81} ; [ DW_TAG_subprogram ]
!68 = metadata !{i32 786473, metadata !"action_doublemult.cpp", metadata !"/afs/bb/proj/fpga/framework/dcelik/GitRepo/snap_fork/actions/hls_data_transfer/hw", null} ; [ DW_TAG_file_type ]
!69 = metadata !{i32 786453, i32 0, metadata !"", i32 0, i32 0, i64 0, i64 0, i64 0, i32 0, null, metadata !70, i32 0, i32 0} ; [ DW_TAG_subroutine_type ]
!70 = metadata !{metadata !71, metadata !72, metadata !72, metadata !507}
!71 = metadata !{i32 786468, null, metadata !"int", null, i32 0, i64 32, i64 32, i64 0, i32 0, i32 5} ; [ DW_TAG_base_type ]
!72 = metadata !{i32 786447, null, metadata !"", null, i32 0, i64 64, i64 64, i64 0, i32 0, metadata !73} ; [ DW_TAG_pointer_type ]
!73 = metadata !{i32 786454, null, metadata !"snap_membus_t", metadata !68, i32 57, i64 0, i64 0, i64 0, i32 0, metadata !74} ; [ DW_TAG_typedef ]
!74 = metadata !{i32 786434, null, metadata !"ap_uint<512>", metadata !75, i32 180, i64 512, i64 512, i32 0, i32 0, null, metadata !76, i32 0, null, metadata !506} ; [ DW_TAG_class_type ]
!75 = metadata !{i32 786473, metadata !"/afs/bb/proj/fpga/xilinx/Vivado_HLS/2016.4/common/technology/autopilot/ap_int.h", metadata !"/afs/bb/proj/fpga/framework/dcelik/GitRepo/snap_fork/actions/hls_data_transfer/hw", null} ; [ DW_TAG_file_type ]
!76 = metadata !{metadata !77, metadata !426, metadata !430, metadata !436, metadata !442, metadata !445, metadata !448, metadata !451, metadata !454, metadata !457, metadata !460, metadata !463, metadata !466, metadata !469, metadata !472, metadata !475, metadata !478, metadata !481, metadata !484, metadata !487, metadata !490, metadata !494, metadata !497, metadata !501, metadata !504, metadata !505}
!77 = metadata !{i32 786460, metadata !74, null, metadata !75, i32 0, i64 0, i64 0, i64 0, i32 0, metadata !78} ; [ DW_TAG_inheritance ]
!78 = metadata !{i32 786434, null, metadata !"ap_int_base<512, false, false>", metadata !79, i32 2341, i64 512, i64 512, i32 0, i32 0, null, metadata !80, i32 0, null, metadata !424} ; [ DW_TAG_class_type ]
!79 = metadata !{i32 786473, metadata !"/afs/bb/proj/fpga/xilinx/Vivado_HLS/2016.4/common/technology/autopilot/ap_int_syn.h", metadata !"/afs/bb/proj/fpga/framework/dcelik/GitRepo/snap_fork/actions/hls_data_transfer/hw", null} ; [ DW_TAG_file_type ]
!80 = metadata !{metadata !81, metadata !102, metadata !106, metadata !114, metadata !120, metadata !123, metadata !127, metadata !131, metadata !135, metadata !139, metadata !142, metadata !146, metadata !150, metadata !154, metadata !159, metadata !164, metadata !168, metadata !172, metadata !178, metadata !181, metadata !185, metadata !188, metadata !191, metadata !192, metadata !196, metadata !199, metadata !202, metadata !205, metadata !208, metadata !211, metadata !214, metadata !217, metadata !220, metadata !223, metadata !226, metadata !229, metadata !239, metadata !242, metadata !243, metadata !244, metadata !245, metadata !246, metadata !249, metadata !252, metadata !255, metadata !258, metadata !261, metadata !264, metadata !267, metadata !268, metadata !272, metadata !275, metadata !276, metadata !277, metadata !278, metadata !279, metadata !280, metadata !283, metadata !284, metadata !287, metadata !288, metadata !289, metadata !290, metadata !291, metadata !292, metadata !295, metadata !296, metadata !297, metadata !300, metadata !301, metadata !304, metadata !312, metadata !313, metadata !316, metadata !381, metadata !382, metadata !385, metadata !386, metadata !390, metadata !391, metadata !392, metadata !393, metadata !396, metadata !397, metadata !398, metadata !399, metadata !400, metadata !401, metadata !402, metadata !403, metadata !404, metadata !405, metadata !406, metadata !407, metadata !417, metadata !420, metadata !423}
!81 = metadata !{i32 786460, metadata !78, null, metadata !79, i32 0, i64 0, i64 0, i64 0, i32 0, metadata !82} ; [ DW_TAG_inheritance ]
!82 = metadata !{i32 786434, null, metadata !"ssdm_int<512 + 1024 * 0, false>", metadata !83, i32 526, i64 512, i64 512, i32 0, i32 0, null, metadata !84, i32 0, null, metadata !98} ; [ DW_TAG_class_type ]
!83 = metadata !{i32 786473, metadata !"/afs/bb/proj/fpga/xilinx/Vivado_HLS/2016.4/common/technology/autopilot/etc/autopilot_dt.def", metadata !"/afs/bb/proj/fpga/framework/dcelik/GitRepo/snap_fork/actions/hls_data_transfer/hw", null} ; [ DW_TAG_file_type ]
!84 = metadata !{metadata !85, metadata !87, metadata !93}
!85 = metadata !{i32 786445, metadata !82, metadata !"V", metadata !83, i32 526, i64 512, i64 512, i64 0, i32 0, metadata !86} ; [ DW_TAG_member ]
!86 = metadata !{i32 786468, null, metadata !"uint512", null, i32 0, i64 512, i64 512, i64 0, i32 0, i32 7} ; [ DW_TAG_base_type ]
!87 = metadata !{i32 786478, i32 0, metadata !82, metadata !"ssdm_int", metadata !"ssdm_int", metadata !"", metadata !83, i32 526, metadata !88, i1 false, i1 false, i32 0, i32 0, null, i32 256, i1 false, null, null, i32 0, metadata !91, i32 526} ; [ DW_TAG_subprogram ]
!88 = metadata !{i32 786453, i32 0, metadata !"", i32 0, i32 0, i64 0, i64 0, i64 0, i32 0, null, metadata !89, i32 0, i32 0} ; [ DW_TAG_subroutine_type ]
!89 = metadata !{null, metadata !90}
!90 = metadata !{i32 786447, i32 0, metadata !"", i32 0, i32 0, i64 64, i64 64, i64 0, i32 64, metadata !82} ; [ DW_TAG_pointer_type ]
!91 = metadata !{metadata !92}
!92 = metadata !{i32 786468}                      ; [ DW_TAG_base_type ]
!93 = metadata !{i32 786478, i32 0, metadata !82, metadata !"ssdm_int", metadata !"ssdm_int", metadata !"", metadata !83, i32 526, metadata !94, i1 false, i1 false, i32 0, i32 0, null, i32 320, i1 false, null, null, i32 0, metadata !91, i32 526} ; [ DW_TAG_subprogram ]
!94 = metadata !{i32 786453, i32 0, metadata !"", i32 0, i32 0, i64 0, i64 0, i64 0, i32 0, null, metadata !95, i32 0, i32 0} ; [ DW_TAG_subroutine_type ]
!95 = metadata !{null, metadata !90, metadata !96}
!96 = metadata !{i32 786448, null, null, null, i32 0, i64 0, i64 0, i64 0, i32 0, metadata !97} ; [ DW_TAG_reference_type ]
!97 = metadata !{i32 786470, null, metadata !"", null, i32 0, i64 0, i64 0, i64 0, i32 0, metadata !82} ; [ DW_TAG_const_type ]
!98 = metadata !{metadata !99, metadata !100}
!99 = metadata !{i32 786480, null, metadata !"_AP_N", metadata !71, i64 512, null, i32 0, i32 0} ; [ DW_TAG_template_value_parameter ]
!100 = metadata !{i32 786480, null, metadata !"_AP_S", metadata !101, i64 0, null, i32 0, i32 0} ; [ DW_TAG_template_value_parameter ]
!101 = metadata !{i32 786468, null, metadata !"bool", null, i32 0, i64 8, i64 8, i64 0, i32 0, i32 2} ; [ DW_TAG_base_type ]
!102 = metadata !{i32 786478, i32 0, metadata !78, metadata !"ap_int_base", metadata !"ap_int_base", metadata !"", metadata !79, i32 2379, metadata !103, i1 false, i1 false, i32 0, i32 0, null, i32 256, i1 false, null, null, i32 0, metadata !91, i32 2379} ; [ DW_TAG_subprogram ]
!103 = metadata !{i32 786453, i32 0, metadata !"", i32 0, i32 0, i64 0, i64 0, i64 0, i32 0, null, metadata !104, i32 0, i32 0} ; [ DW_TAG_subroutine_type ]
!104 = metadata !{null, metadata !105}
!105 = metadata !{i32 786447, i32 0, metadata !"", i32 0, i32 0, i64 64, i64 64, i64 0, i32 64, metadata !78} ; [ DW_TAG_pointer_type ]
!106 = metadata !{i32 786478, i32 0, metadata !78, metadata !"ap_int_base<512, false>", metadata !"ap_int_base<512, false>", metadata !"", metadata !79, i32 2391, metadata !107, i1 false, i1 false, i32 0, i32 0, null, i32 256, i1 false, null, metadata !111, i32 0, metadata !91, i32 2391} ; [ DW_TAG_subprogram ]
!107 = metadata !{i32 786453, i32 0, metadata !"", i32 0, i32 0, i64 0, i64 0, i64 0, i32 0, null, metadata !108, i32 0, i32 0} ; [ DW_TAG_subroutine_type ]
!108 = metadata !{null, metadata !105, metadata !109}
!109 = metadata !{i32 786448, null, null, null, i32 0, i64 0, i64 0, i64 0, i32 0, metadata !110} ; [ DW_TAG_reference_type ]
!110 = metadata !{i32 786470, null, metadata !"", null, i32 0, i64 0, i64 0, i64 0, i32 0, metadata !78} ; [ DW_TAG_const_type ]
!111 = metadata !{metadata !112, metadata !113}
!112 = metadata !{i32 786480, null, metadata !"_AP_W2", metadata !71, i64 512, null, i32 0, i32 0} ; [ DW_TAG_template_value_parameter ]
!113 = metadata !{i32 786480, null, metadata !"_AP_S2", metadata !101, i64 0, null, i32 0, i32 0} ; [ DW_TAG_template_value_parameter ]
!114 = metadata !{i32 786478, i32 0, metadata !78, metadata !"ap_int_base<512, false>", metadata !"ap_int_base<512, false>", metadata !"", metadata !79, i32 2394, metadata !115, i1 false, i1 false, i32 0, i32 0, null, i32 256, i1 false, null, metadata !111, i32 0, metadata !91, i32 2394} ; [ DW_TAG_subprogram ]
!115 = metadata !{i32 786453, i32 0, metadata !"", i32 0, i32 0, i64 0, i64 0, i64 0, i32 0, null, metadata !116, i32 0, i32 0} ; [ DW_TAG_subroutine_type ]
!116 = metadata !{null, metadata !105, metadata !117}
!117 = metadata !{i32 786448, null, null, null, i32 0, i64 0, i64 0, i64 0, i32 0, metadata !118} ; [ DW_TAG_reference_type ]
!118 = metadata !{i32 786470, null, metadata !"", null, i32 0, i64 0, i64 0, i64 0, i32 0, metadata !119} ; [ DW_TAG_const_type ]
!119 = metadata !{i32 786485, null, metadata !"", null, i32 0, i64 0, i64 0, i64 0, i32 0, metadata !78} ; [ DW_TAG_volatile_type ]
!120 = metadata !{i32 786478, i32 0, metadata !78, metadata !"ap_int_base", metadata !"ap_int_base", metadata !"", metadata !79, i32 2401, metadata !121, i1 false, i1 false, i32 0, i32 0, null, i32 384, i1 false, null, null, i32 0, metadata !91, i32 2401} ; [ DW_TAG_subprogram ]
!121 = metadata !{i32 786453, i32 0, metadata !"", i32 0, i32 0, i64 0, i64 0, i64 0, i32 0, null, metadata !122, i32 0, i32 0} ; [ DW_TAG_subroutine_type ]
!122 = metadata !{null, metadata !105, metadata !101}
!123 = metadata !{i32 786478, i32 0, metadata !78, metadata !"ap_int_base", metadata !"ap_int_base", metadata !"", metadata !79, i32 2402, metadata !124, i1 false, i1 false, i32 0, i32 0, null, i32 384, i1 false, null, null, i32 0, metadata !91, i32 2402} ; [ DW_TAG_subprogram ]
!124 = metadata !{i32 786453, i32 0, metadata !"", i32 0, i32 0, i64 0, i64 0, i64 0, i32 0, null, metadata !125, i32 0, i32 0} ; [ DW_TAG_subroutine_type ]
!125 = metadata !{null, metadata !105, metadata !126}
!126 = metadata !{i32 786468, null, metadata !"signed char", null, i32 0, i64 8, i64 8, i64 0, i32 0, i32 6} ; [ DW_TAG_base_type ]
!127 = metadata !{i32 786478, i32 0, metadata !78, metadata !"ap_int_base", metadata !"ap_int_base", metadata !"", metadata !79, i32 2403, metadata !128, i1 false, i1 false, i32 0, i32 0, null, i32 384, i1 false, null, null, i32 0, metadata !91, i32 2403} ; [ DW_TAG_subprogram ]
!128 = metadata !{i32 786453, i32 0, metadata !"", i32 0, i32 0, i64 0, i64 0, i64 0, i32 0, null, metadata !129, i32 0, i32 0} ; [ DW_TAG_subroutine_type ]
!129 = metadata !{null, metadata !105, metadata !130}
!130 = metadata !{i32 786468, null, metadata !"unsigned char", null, i32 0, i64 8, i64 8, i64 0, i32 0, i32 8} ; [ DW_TAG_base_type ]
!131 = metadata !{i32 786478, i32 0, metadata !78, metadata !"ap_int_base", metadata !"ap_int_base", metadata !"", metadata !79, i32 2404, metadata !132, i1 false, i1 false, i32 0, i32 0, null, i32 384, i1 false, null, null, i32 0, metadata !91, i32 2404} ; [ DW_TAG_subprogram ]
!132 = metadata !{i32 786453, i32 0, metadata !"", i32 0, i32 0, i64 0, i64 0, i64 0, i32 0, null, metadata !133, i32 0, i32 0} ; [ DW_TAG_subroutine_type ]
!133 = metadata !{null, metadata !105, metadata !134}
!134 = metadata !{i32 786468, null, metadata !"short", null, i32 0, i64 16, i64 16, i64 0, i32 0, i32 5} ; [ DW_TAG_base_type ]
!135 = metadata !{i32 786478, i32 0, metadata !78, metadata !"ap_int_base", metadata !"ap_int_base", metadata !"", metadata !79, i32 2405, metadata !136, i1 false, i1 false, i32 0, i32 0, null, i32 384, i1 false, null, null, i32 0, metadata !91, i32 2405} ; [ DW_TAG_subprogram ]
!136 = metadata !{i32 786453, i32 0, metadata !"", i32 0, i32 0, i64 0, i64 0, i64 0, i32 0, null, metadata !137, i32 0, i32 0} ; [ DW_TAG_subroutine_type ]
!137 = metadata !{null, metadata !105, metadata !138}
!138 = metadata !{i32 786468, null, metadata !"unsigned short", null, i32 0, i64 16, i64 16, i64 0, i32 0, i32 7} ; [ DW_TAG_base_type ]
!139 = metadata !{i32 786478, i32 0, metadata !78, metadata !"ap_int_base", metadata !"ap_int_base", metadata !"", metadata !79, i32 2406, metadata !140, i1 false, i1 false, i32 0, i32 0, null, i32 384, i1 false, null, null, i32 0, metadata !91, i32 2406} ; [ DW_TAG_subprogram ]
!140 = metadata !{i32 786453, i32 0, metadata !"", i32 0, i32 0, i64 0, i64 0, i64 0, i32 0, null, metadata !141, i32 0, i32 0} ; [ DW_TAG_subroutine_type ]
!141 = metadata !{null, metadata !105, metadata !71}
!142 = metadata !{i32 786478, i32 0, metadata !78, metadata !"ap_int_base", metadata !"ap_int_base", metadata !"", metadata !79, i32 2407, metadata !143, i1 false, i1 false, i32 0, i32 0, null, i32 384, i1 false, null, null, i32 0, metadata !91, i32 2407} ; [ DW_TAG_subprogram ]
!143 = metadata !{i32 786453, i32 0, metadata !"", i32 0, i32 0, i64 0, i64 0, i64 0, i32 0, null, metadata !144, i32 0, i32 0} ; [ DW_TAG_subroutine_type ]
!144 = metadata !{null, metadata !105, metadata !145}
!145 = metadata !{i32 786468, null, metadata !"unsigned int", null, i32 0, i64 32, i64 32, i64 0, i32 0, i32 7} ; [ DW_TAG_base_type ]
!146 = metadata !{i32 786478, i32 0, metadata !78, metadata !"ap_int_base", metadata !"ap_int_base", metadata !"", metadata !79, i32 2408, metadata !147, i1 false, i1 false, i32 0, i32 0, null, i32 384, i1 false, null, null, i32 0, metadata !91, i32 2408} ; [ DW_TAG_subprogram ]
!147 = metadata !{i32 786453, i32 0, metadata !"", i32 0, i32 0, i64 0, i64 0, i64 0, i32 0, null, metadata !148, i32 0, i32 0} ; [ DW_TAG_subroutine_type ]
!148 = metadata !{null, metadata !105, metadata !149}
!149 = metadata !{i32 786468, null, metadata !"long int", null, i32 0, i64 64, i64 64, i64 0, i32 0, i32 5} ; [ DW_TAG_base_type ]
!150 = metadata !{i32 786478, i32 0, metadata !78, metadata !"ap_int_base", metadata !"ap_int_base", metadata !"", metadata !79, i32 2409, metadata !151, i1 false, i1 false, i32 0, i32 0, null, i32 384, i1 false, null, null, i32 0, metadata !91, i32 2409} ; [ DW_TAG_subprogram ]
!151 = metadata !{i32 786453, i32 0, metadata !"", i32 0, i32 0, i64 0, i64 0, i64 0, i32 0, null, metadata !152, i32 0, i32 0} ; [ DW_TAG_subroutine_type ]
!152 = metadata !{null, metadata !105, metadata !153}
!153 = metadata !{i32 786468, null, metadata !"long unsigned int", null, i32 0, i64 64, i64 64, i64 0, i32 0, i32 7} ; [ DW_TAG_base_type ]
!154 = metadata !{i32 786478, i32 0, metadata !78, metadata !"ap_int_base", metadata !"ap_int_base", metadata !"", metadata !79, i32 2410, metadata !155, i1 false, i1 false, i32 0, i32 0, null, i32 384, i1 false, null, null, i32 0, metadata !91, i32 2410} ; [ DW_TAG_subprogram ]
!155 = metadata !{i32 786453, i32 0, metadata !"", i32 0, i32 0, i64 0, i64 0, i64 0, i32 0, null, metadata !156, i32 0, i32 0} ; [ DW_TAG_subroutine_type ]
!156 = metadata !{null, metadata !105, metadata !157}
!157 = metadata !{i32 786454, null, metadata !"ap_slong", metadata !79, i32 111, i64 0, i64 0, i64 0, i32 0, metadata !158} ; [ DW_TAG_typedef ]
!158 = metadata !{i32 786468, null, metadata !"long long int", null, i32 0, i64 64, i64 64, i64 0, i32 0, i32 5} ; [ DW_TAG_base_type ]
!159 = metadata !{i32 786478, i32 0, metadata !78, metadata !"ap_int_base", metadata !"ap_int_base", metadata !"", metadata !79, i32 2411, metadata !160, i1 false, i1 false, i32 0, i32 0, null, i32 384, i1 false, null, null, i32 0, metadata !91, i32 2411} ; [ DW_TAG_subprogram ]
!160 = metadata !{i32 786453, i32 0, metadata !"", i32 0, i32 0, i64 0, i64 0, i64 0, i32 0, null, metadata !161, i32 0, i32 0} ; [ DW_TAG_subroutine_type ]
!161 = metadata !{null, metadata !105, metadata !162}
!162 = metadata !{i32 786454, null, metadata !"ap_ulong", metadata !79, i32 110, i64 0, i64 0, i64 0, i32 0, metadata !163} ; [ DW_TAG_typedef ]
!163 = metadata !{i32 786468, null, metadata !"long long unsigned int", null, i32 0, i64 64, i64 64, i64 0, i32 0, i32 7} ; [ DW_TAG_base_type ]
!164 = metadata !{i32 786478, i32 0, metadata !78, metadata !"ap_int_base", metadata !"ap_int_base", metadata !"", metadata !79, i32 2412, metadata !165, i1 false, i1 false, i32 0, i32 0, null, i32 384, i1 false, null, null, i32 0, metadata !91, i32 2412} ; [ DW_TAG_subprogram ]
!165 = metadata !{i32 786453, i32 0, metadata !"", i32 0, i32 0, i64 0, i64 0, i64 0, i32 0, null, metadata !166, i32 0, i32 0} ; [ DW_TAG_subroutine_type ]
!166 = metadata !{null, metadata !105, metadata !167}
!167 = metadata !{i32 786468, null, metadata !"float", null, i32 0, i64 32, i64 32, i64 0, i32 0, i32 4} ; [ DW_TAG_base_type ]
!168 = metadata !{i32 786478, i32 0, metadata !78, metadata !"ap_int_base", metadata !"ap_int_base", metadata !"", metadata !79, i32 2413, metadata !169, i1 false, i1 false, i32 0, i32 0, null, i32 384, i1 false, null, null, i32 0, metadata !91, i32 2413} ; [ DW_TAG_subprogram ]
!169 = metadata !{i32 786453, i32 0, metadata !"", i32 0, i32 0, i64 0, i64 0, i64 0, i32 0, null, metadata !170, i32 0, i32 0} ; [ DW_TAG_subroutine_type ]
!170 = metadata !{null, metadata !105, metadata !171}
!171 = metadata !{i32 786468, null, metadata !"double", null, i32 0, i64 64, i64 64, i64 0, i32 0, i32 4} ; [ DW_TAG_base_type ]
!172 = metadata !{i32 786478, i32 0, metadata !78, metadata !"ap_int_base", metadata !"ap_int_base", metadata !"", metadata !79, i32 2440, metadata !173, i1 false, i1 false, i32 0, i32 0, null, i32 256, i1 false, null, null, i32 0, metadata !91, i32 2440} ; [ DW_TAG_subprogram ]
!173 = metadata !{i32 786453, i32 0, metadata !"", i32 0, i32 0, i64 0, i64 0, i64 0, i32 0, null, metadata !174, i32 0, i32 0} ; [ DW_TAG_subroutine_type ]
!174 = metadata !{null, metadata !105, metadata !175}
!175 = metadata !{i32 786447, null, metadata !"", null, i32 0, i64 64, i64 64, i64 0, i32 0, metadata !176} ; [ DW_TAG_pointer_type ]
!176 = metadata !{i32 786470, null, metadata !"", null, i32 0, i64 0, i64 0, i64 0, i32 0, metadata !177} ; [ DW_TAG_const_type ]
!177 = metadata !{i32 786468, null, metadata !"char", null, i32 0, i64 8, i64 8, i64 0, i32 0, i32 6} ; [ DW_TAG_base_type ]
!178 = metadata !{i32 786478, i32 0, metadata !78, metadata !"ap_int_base", metadata !"ap_int_base", metadata !"", metadata !79, i32 2447, metadata !179, i1 false, i1 false, i32 0, i32 0, null, i32 256, i1 false, null, null, i32 0, metadata !91, i32 2447} ; [ DW_TAG_subprogram ]
!179 = metadata !{i32 786453, i32 0, metadata !"", i32 0, i32 0, i64 0, i64 0, i64 0, i32 0, null, metadata !180, i32 0, i32 0} ; [ DW_TAG_subroutine_type ]
!180 = metadata !{null, metadata !105, metadata !175, metadata !126}
!181 = metadata !{i32 786478, i32 0, metadata !78, metadata !"read", metadata !"read", metadata !"_ZNV11ap_int_baseILi512ELb0ELb0EE4readEv", metadata !79, i32 2468, metadata !182, i1 false, i1 false, i32 0, i32 0, null, i32 256, i1 false, null, null, i32 0, metadata !91, i32 2468} ; [ DW_TAG_subprogram ]
!182 = metadata !{i32 786453, i32 0, metadata !"", i32 0, i32 0, i64 0, i64 0, i64 0, i32 0, null, metadata !183, i32 0, i32 0} ; [ DW_TAG_subroutine_type ]
!183 = metadata !{metadata !78, metadata !184}
!184 = metadata !{i32 786447, i32 0, metadata !"", i32 0, i32 0, i64 64, i64 64, i64 0, i32 64, metadata !119} ; [ DW_TAG_pointer_type ]
!185 = metadata !{i32 786478, i32 0, metadata !78, metadata !"write", metadata !"write", metadata !"_ZNV11ap_int_baseILi512ELb0ELb0EE5writeERKS0_", metadata !79, i32 2474, metadata !186, i1 false, i1 false, i32 0, i32 0, null, i32 256, i1 false, null, null, i32 0, metadata !91, i32 2474} ; [ DW_TAG_subprogram ]
!186 = metadata !{i32 786453, i32 0, metadata !"", i32 0, i32 0, i64 0, i64 0, i64 0, i32 0, null, metadata !187, i32 0, i32 0} ; [ DW_TAG_subroutine_type ]
!187 = metadata !{null, metadata !184, metadata !109}
!188 = metadata !{i32 786478, i32 0, metadata !78, metadata !"operator=", metadata !"operator=", metadata !"_ZNV11ap_int_baseILi512ELb0ELb0EEaSERVKS0_", metadata !79, i32 2486, metadata !189, i1 false, i1 false, i32 0, i32 0, null, i32 256, i1 false, null, null, i32 0, metadata !91, i32 2486} ; [ DW_TAG_subprogram ]
!189 = metadata !{i32 786453, i32 0, metadata !"", i32 0, i32 0, i64 0, i64 0, i64 0, i32 0, null, metadata !190, i32 0, i32 0} ; [ DW_TAG_subroutine_type ]
!190 = metadata !{null, metadata !184, metadata !117}
!191 = metadata !{i32 786478, i32 0, metadata !78, metadata !"operator=", metadata !"operator=", metadata !"_ZNV11ap_int_baseILi512ELb0ELb0EEaSERKS0_", metadata !79, i32 2495, metadata !186, i1 false, i1 false, i32 0, i32 0, null, i32 256, i1 false, null, null, i32 0, metadata !91, i32 2495} ; [ DW_TAG_subprogram ]
!192 = metadata !{i32 786478, i32 0, metadata !78, metadata !"operator=", metadata !"operator=", metadata !"_ZN11ap_int_baseILi512ELb0ELb0EEaSERVKS0_", metadata !79, i32 2518, metadata !193, i1 false, i1 false, i32 0, i32 0, null, i32 256, i1 false, null, null, i32 0, metadata !91, i32 2518} ; [ DW_TAG_subprogram ]
!193 = metadata !{i32 786453, i32 0, metadata !"", i32 0, i32 0, i64 0, i64 0, i64 0, i32 0, null, metadata !194, i32 0, i32 0} ; [ DW_TAG_subroutine_type ]
!194 = metadata !{metadata !195, metadata !105, metadata !117}
!195 = metadata !{i32 786448, null, null, null, i32 0, i64 0, i64 0, i64 0, i32 0, metadata !78} ; [ DW_TAG_reference_type ]
!196 = metadata !{i32 786478, i32 0, metadata !78, metadata !"operator=", metadata !"operator=", metadata !"_ZN11ap_int_baseILi512ELb0ELb0EEaSERKS0_", metadata !79, i32 2523, metadata !197, i1 false, i1 false, i32 0, i32 0, null, i32 256, i1 false, null, null, i32 0, metadata !91, i32 2523} ; [ DW_TAG_subprogram ]
!197 = metadata !{i32 786453, i32 0, metadata !"", i32 0, i32 0, i64 0, i64 0, i64 0, i32 0, null, metadata !198, i32 0, i32 0} ; [ DW_TAG_subroutine_type ]
!198 = metadata !{metadata !195, metadata !105, metadata !109}
!199 = metadata !{i32 786478, i32 0, metadata !78, metadata !"operator=", metadata !"operator=", metadata !"_ZN11ap_int_baseILi512ELb0ELb0EEaSEPKc", metadata !79, i32 2527, metadata !200, i1 false, i1 false, i32 0, i32 0, null, i32 256, i1 false, null, null, i32 0, metadata !91, i32 2527} ; [ DW_TAG_subprogram ]
!200 = metadata !{i32 786453, i32 0, metadata !"", i32 0, i32 0, i64 0, i64 0, i64 0, i32 0, null, metadata !201, i32 0, i32 0} ; [ DW_TAG_subroutine_type ]
!201 = metadata !{metadata !195, metadata !105, metadata !175}
!202 = metadata !{i32 786478, i32 0, metadata !78, metadata !"set", metadata !"set", metadata !"_ZN11ap_int_baseILi512ELb0ELb0EE3setEPKca", metadata !79, i32 2535, metadata !203, i1 false, i1 false, i32 0, i32 0, null, i32 256, i1 false, null, null, i32 0, metadata !91, i32 2535} ; [ DW_TAG_subprogram ]
!203 = metadata !{i32 786453, i32 0, metadata !"", i32 0, i32 0, i64 0, i64 0, i64 0, i32 0, null, metadata !204, i32 0, i32 0} ; [ DW_TAG_subroutine_type ]
!204 = metadata !{metadata !195, metadata !105, metadata !175, metadata !126}
!205 = metadata !{i32 786478, i32 0, metadata !78, metadata !"operator=", metadata !"operator=", metadata !"_ZN11ap_int_baseILi512ELb0ELb0EEaSEc", metadata !79, i32 2549, metadata !206, i1 false, i1 false, i32 0, i32 0, null, i32 256, i1 false, null, null, i32 0, metadata !91, i32 2549} ; [ DW_TAG_subprogram ]
!206 = metadata !{i32 786453, i32 0, metadata !"", i32 0, i32 0, i64 0, i64 0, i64 0, i32 0, null, metadata !207, i32 0, i32 0} ; [ DW_TAG_subroutine_type ]
!207 = metadata !{metadata !195, metadata !105, metadata !177}
!208 = metadata !{i32 786478, i32 0, metadata !78, metadata !"operator=", metadata !"operator=", metadata !"_ZN11ap_int_baseILi512ELb0ELb0EEaSEh", metadata !79, i32 2550, metadata !209, i1 false, i1 false, i32 0, i32 0, null, i32 256, i1 false, null, null, i32 0, metadata !91, i32 2550} ; [ DW_TAG_subprogram ]
!209 = metadata !{i32 786453, i32 0, metadata !"", i32 0, i32 0, i64 0, i64 0, i64 0, i32 0, null, metadata !210, i32 0, i32 0} ; [ DW_TAG_subroutine_type ]
!210 = metadata !{metadata !195, metadata !105, metadata !130}
!211 = metadata !{i32 786478, i32 0, metadata !78, metadata !"operator=", metadata !"operator=", metadata !"_ZN11ap_int_baseILi512ELb0ELb0EEaSEs", metadata !79, i32 2551, metadata !212, i1 false, i1 false, i32 0, i32 0, null, i32 256, i1 false, null, null, i32 0, metadata !91, i32 2551} ; [ DW_TAG_subprogram ]
!212 = metadata !{i32 786453, i32 0, metadata !"", i32 0, i32 0, i64 0, i64 0, i64 0, i32 0, null, metadata !213, i32 0, i32 0} ; [ DW_TAG_subroutine_type ]
!213 = metadata !{metadata !195, metadata !105, metadata !134}
!214 = metadata !{i32 786478, i32 0, metadata !78, metadata !"operator=", metadata !"operator=", metadata !"_ZN11ap_int_baseILi512ELb0ELb0EEaSEt", metadata !79, i32 2552, metadata !215, i1 false, i1 false, i32 0, i32 0, null, i32 256, i1 false, null, null, i32 0, metadata !91, i32 2552} ; [ DW_TAG_subprogram ]
!215 = metadata !{i32 786453, i32 0, metadata !"", i32 0, i32 0, i64 0, i64 0, i64 0, i32 0, null, metadata !216, i32 0, i32 0} ; [ DW_TAG_subroutine_type ]
!216 = metadata !{metadata !195, metadata !105, metadata !138}
!217 = metadata !{i32 786478, i32 0, metadata !78, metadata !"operator=", metadata !"operator=", metadata !"_ZN11ap_int_baseILi512ELb0ELb0EEaSEi", metadata !79, i32 2553, metadata !218, i1 false, i1 false, i32 0, i32 0, null, i32 256, i1 false, null, null, i32 0, metadata !91, i32 2553} ; [ DW_TAG_subprogram ]
!218 = metadata !{i32 786453, i32 0, metadata !"", i32 0, i32 0, i64 0, i64 0, i64 0, i32 0, null, metadata !219, i32 0, i32 0} ; [ DW_TAG_subroutine_type ]
!219 = metadata !{metadata !195, metadata !105, metadata !71}
!220 = metadata !{i32 786478, i32 0, metadata !78, metadata !"operator=", metadata !"operator=", metadata !"_ZN11ap_int_baseILi512ELb0ELb0EEaSEj", metadata !79, i32 2554, metadata !221, i1 false, i1 false, i32 0, i32 0, null, i32 256, i1 false, null, null, i32 0, metadata !91, i32 2554} ; [ DW_TAG_subprogram ]
!221 = metadata !{i32 786453, i32 0, metadata !"", i32 0, i32 0, i64 0, i64 0, i64 0, i32 0, null, metadata !222, i32 0, i32 0} ; [ DW_TAG_subroutine_type ]
!222 = metadata !{metadata !195, metadata !105, metadata !145}
!223 = metadata !{i32 786478, i32 0, metadata !78, metadata !"operator=", metadata !"operator=", metadata !"_ZN11ap_int_baseILi512ELb0ELb0EEaSEx", metadata !79, i32 2555, metadata !224, i1 false, i1 false, i32 0, i32 0, null, i32 256, i1 false, null, null, i32 0, metadata !91, i32 2555} ; [ DW_TAG_subprogram ]
!224 = metadata !{i32 786453, i32 0, metadata !"", i32 0, i32 0, i64 0, i64 0, i64 0, i32 0, null, metadata !225, i32 0, i32 0} ; [ DW_TAG_subroutine_type ]
!225 = metadata !{metadata !195, metadata !105, metadata !157}
!226 = metadata !{i32 786478, i32 0, metadata !78, metadata !"operator=", metadata !"operator=", metadata !"_ZN11ap_int_baseILi512ELb0ELb0EEaSEy", metadata !79, i32 2556, metadata !227, i1 false, i1 false, i32 0, i32 0, null, i32 256, i1 false, null, null, i32 0, metadata !91, i32 2556} ; [ DW_TAG_subprogram ]
!227 = metadata !{i32 786453, i32 0, metadata !"", i32 0, i32 0, i64 0, i64 0, i64 0, i32 0, null, metadata !228, i32 0, i32 0} ; [ DW_TAG_subroutine_type ]
!228 = metadata !{metadata !195, metadata !105, metadata !162}
!229 = metadata !{i32 786478, i32 0, metadata !78, metadata !"operator unsigned long long", metadata !"operator unsigned long long", metadata !"_ZNK11ap_int_baseILi512ELb0ELb0EEcvyEv", metadata !79, i32 2595, metadata !230, i1 false, i1 false, i32 0, i32 0, null, i32 256, i1 false, null, null, i32 0, metadata !91, i32 2595} ; [ DW_TAG_subprogram ]
!230 = metadata !{i32 786453, i32 0, metadata !"", i32 0, i32 0, i64 0, i64 0, i64 0, i32 0, null, metadata !231, i32 0, i32 0} ; [ DW_TAG_subroutine_type ]
!231 = metadata !{metadata !232, metadata !238}
!232 = metadata !{i32 786454, metadata !78, metadata !"RetType", metadata !79, i32 2345, i64 0, i64 0, i64 0, i32 0, metadata !233} ; [ DW_TAG_typedef ]
!233 = metadata !{i32 786454, metadata !234, metadata !"Type", metadata !79, i32 1363, i64 0, i64 0, i64 0, i32 0, metadata !162} ; [ DW_TAG_typedef ]
!234 = metadata !{i32 786434, null, metadata !"retval<8, false>", metadata !79, i32 1362, i64 8, i64 8, i32 0, i32 0, null, metadata !235, i32 0, null, metadata !236} ; [ DW_TAG_class_type ]
!235 = metadata !{i32 0}
!236 = metadata !{metadata !237, metadata !100}
!237 = metadata !{i32 786480, null, metadata !"_AP_N", metadata !71, i64 8, null, i32 0, i32 0} ; [ DW_TAG_template_value_parameter ]
!238 = metadata !{i32 786447, i32 0, metadata !"", i32 0, i32 0, i64 64, i64 64, i64 0, i32 64, metadata !110} ; [ DW_TAG_pointer_type ]
!239 = metadata !{i32 786478, i32 0, metadata !78, metadata !"to_bool", metadata !"to_bool", metadata !"_ZNK11ap_int_baseILi512ELb0ELb0EE7to_boolEv", metadata !79, i32 2601, metadata !240, i1 false, i1 false, i32 0, i32 0, null, i32 256, i1 false, null, null, i32 0, metadata !91, i32 2601} ; [ DW_TAG_subprogram ]
!240 = metadata !{i32 786453, i32 0, metadata !"", i32 0, i32 0, i64 0, i64 0, i64 0, i32 0, null, metadata !241, i32 0, i32 0} ; [ DW_TAG_subroutine_type ]
!241 = metadata !{metadata !101, metadata !238}
!242 = metadata !{i32 786478, i32 0, metadata !78, metadata !"to_uchar", metadata !"to_uchar", metadata !"_ZNK11ap_int_baseILi512ELb0ELb0EE8to_ucharEv", metadata !79, i32 2602, metadata !240, i1 false, i1 false, i32 0, i32 0, null, i32 256, i1 false, null, null, i32 0, metadata !91, i32 2602} ; [ DW_TAG_subprogram ]
!243 = metadata !{i32 786478, i32 0, metadata !78, metadata !"to_char", metadata !"to_char", metadata !"_ZNK11ap_int_baseILi512ELb0ELb0EE7to_charEv", metadata !79, i32 2603, metadata !240, i1 false, i1 false, i32 0, i32 0, null, i32 256, i1 false, null, null, i32 0, metadata !91, i32 2603} ; [ DW_TAG_subprogram ]
!244 = metadata !{i32 786478, i32 0, metadata !78, metadata !"to_ushort", metadata !"to_ushort", metadata !"_ZNK11ap_int_baseILi512ELb0ELb0EE9to_ushortEv", metadata !79, i32 2604, metadata !240, i1 false, i1 false, i32 0, i32 0, null, i32 256, i1 false, null, null, i32 0, metadata !91, i32 2604} ; [ DW_TAG_subprogram ]
!245 = metadata !{i32 786478, i32 0, metadata !78, metadata !"to_short", metadata !"to_short", metadata !"_ZNK11ap_int_baseILi512ELb0ELb0EE8to_shortEv", metadata !79, i32 2605, metadata !240, i1 false, i1 false, i32 0, i32 0, null, i32 256, i1 false, null, null, i32 0, metadata !91, i32 2605} ; [ DW_TAG_subprogram ]
!246 = metadata !{i32 786478, i32 0, metadata !78, metadata !"to_int", metadata !"to_int", metadata !"_ZNK11ap_int_baseILi512ELb0ELb0EE6to_intEv", metadata !79, i32 2606, metadata !247, i1 false, i1 false, i32 0, i32 0, null, i32 256, i1 false, null, null, i32 0, metadata !91, i32 2606} ; [ DW_TAG_subprogram ]
!247 = metadata !{i32 786453, i32 0, metadata !"", i32 0, i32 0, i64 0, i64 0, i64 0, i32 0, null, metadata !248, i32 0, i32 0} ; [ DW_TAG_subroutine_type ]
!248 = metadata !{metadata !71, metadata !238}
!249 = metadata !{i32 786478, i32 0, metadata !78, metadata !"to_uint", metadata !"to_uint", metadata !"_ZNK11ap_int_baseILi512ELb0ELb0EE7to_uintEv", metadata !79, i32 2607, metadata !250, i1 false, i1 false, i32 0, i32 0, null, i32 256, i1 false, null, null, i32 0, metadata !91, i32 2607} ; [ DW_TAG_subprogram ]
!250 = metadata !{i32 786453, i32 0, metadata !"", i32 0, i32 0, i64 0, i64 0, i64 0, i32 0, null, metadata !251, i32 0, i32 0} ; [ DW_TAG_subroutine_type ]
!251 = metadata !{metadata !145, metadata !238}
!252 = metadata !{i32 786478, i32 0, metadata !78, metadata !"to_long", metadata !"to_long", metadata !"_ZNK11ap_int_baseILi512ELb0ELb0EE7to_longEv", metadata !79, i32 2608, metadata !253, i1 false, i1 false, i32 0, i32 0, null, i32 256, i1 false, null, null, i32 0, metadata !91, i32 2608} ; [ DW_TAG_subprogram ]
!253 = metadata !{i32 786453, i32 0, metadata !"", i32 0, i32 0, i64 0, i64 0, i64 0, i32 0, null, metadata !254, i32 0, i32 0} ; [ DW_TAG_subroutine_type ]
!254 = metadata !{metadata !149, metadata !238}
!255 = metadata !{i32 786478, i32 0, metadata !78, metadata !"to_ulong", metadata !"to_ulong", metadata !"_ZNK11ap_int_baseILi512ELb0ELb0EE8to_ulongEv", metadata !79, i32 2609, metadata !256, i1 false, i1 false, i32 0, i32 0, null, i32 256, i1 false, null, null, i32 0, metadata !91, i32 2609} ; [ DW_TAG_subprogram ]
!256 = metadata !{i32 786453, i32 0, metadata !"", i32 0, i32 0, i64 0, i64 0, i64 0, i32 0, null, metadata !257, i32 0, i32 0} ; [ DW_TAG_subroutine_type ]
!257 = metadata !{metadata !153, metadata !238}
!258 = metadata !{i32 786478, i32 0, metadata !78, metadata !"to_int64", metadata !"to_int64", metadata !"_ZNK11ap_int_baseILi512ELb0ELb0EE8to_int64Ev", metadata !79, i32 2610, metadata !259, i1 false, i1 false, i32 0, i32 0, null, i32 256, i1 false, null, null, i32 0, metadata !91, i32 2610} ; [ DW_TAG_subprogram ]
!259 = metadata !{i32 786453, i32 0, metadata !"", i32 0, i32 0, i64 0, i64 0, i64 0, i32 0, null, metadata !260, i32 0, i32 0} ; [ DW_TAG_subroutine_type ]
!260 = metadata !{metadata !157, metadata !238}
!261 = metadata !{i32 786478, i32 0, metadata !78, metadata !"to_uint64", metadata !"to_uint64", metadata !"_ZNK11ap_int_baseILi512ELb0ELb0EE9to_uint64Ev", metadata !79, i32 2611, metadata !262, i1 false, i1 false, i32 0, i32 0, null, i32 256, i1 false, null, null, i32 0, metadata !91, i32 2611} ; [ DW_TAG_subprogram ]
!262 = metadata !{i32 786453, i32 0, metadata !"", i32 0, i32 0, i64 0, i64 0, i64 0, i32 0, null, metadata !263, i32 0, i32 0} ; [ DW_TAG_subroutine_type ]
!263 = metadata !{metadata !162, metadata !238}
!264 = metadata !{i32 786478, i32 0, metadata !78, metadata !"to_double", metadata !"to_double", metadata !"_ZNK11ap_int_baseILi512ELb0ELb0EE9to_doubleEv", metadata !79, i32 2612, metadata !265, i1 false, i1 false, i32 0, i32 0, null, i32 256, i1 false, null, null, i32 0, metadata !91, i32 2612} ; [ DW_TAG_subprogram ]
!265 = metadata !{i32 786453, i32 0, metadata !"", i32 0, i32 0, i64 0, i64 0, i64 0, i32 0, null, metadata !266, i32 0, i32 0} ; [ DW_TAG_subroutine_type ]
!266 = metadata !{metadata !171, metadata !238}
!267 = metadata !{i32 786478, i32 0, metadata !78, metadata !"length", metadata !"length", metadata !"_ZNK11ap_int_baseILi512ELb0ELb0EE6lengthEv", metadata !79, i32 2625, metadata !247, i1 false, i1 false, i32 0, i32 0, null, i32 256, i1 false, null, null, i32 0, metadata !91, i32 2625} ; [ DW_TAG_subprogram ]
!268 = metadata !{i32 786478, i32 0, metadata !78, metadata !"length", metadata !"length", metadata !"_ZNVK11ap_int_baseILi512ELb0ELb0EE6lengthEv", metadata !79, i32 2626, metadata !269, i1 false, i1 false, i32 0, i32 0, null, i32 256, i1 false, null, null, i32 0, metadata !91, i32 2626} ; [ DW_TAG_subprogram ]
!269 = metadata !{i32 786453, i32 0, metadata !"", i32 0, i32 0, i64 0, i64 0, i64 0, i32 0, null, metadata !270, i32 0, i32 0} ; [ DW_TAG_subroutine_type ]
!270 = metadata !{metadata !71, metadata !271}
!271 = metadata !{i32 786447, i32 0, metadata !"", i32 0, i32 0, i64 64, i64 64, i64 0, i32 64, metadata !118} ; [ DW_TAG_pointer_type ]
!272 = metadata !{i32 786478, i32 0, metadata !78, metadata !"reverse", metadata !"reverse", metadata !"_ZN11ap_int_baseILi512ELb0ELb0EE7reverseEv", metadata !79, i32 2631, metadata !273, i1 false, i1 false, i32 0, i32 0, null, i32 256, i1 false, null, null, i32 0, metadata !91, i32 2631} ; [ DW_TAG_subprogram ]
!273 = metadata !{i32 786453, i32 0, metadata !"", i32 0, i32 0, i64 0, i64 0, i64 0, i32 0, null, metadata !274, i32 0, i32 0} ; [ DW_TAG_subroutine_type ]
!274 = metadata !{metadata !195, metadata !105}
!275 = metadata !{i32 786478, i32 0, metadata !78, metadata !"iszero", metadata !"iszero", metadata !"_ZNK11ap_int_baseILi512ELb0ELb0EE6iszeroEv", metadata !79, i32 2637, metadata !240, i1 false, i1 false, i32 0, i32 0, null, i32 256, i1 false, null, null, i32 0, metadata !91, i32 2637} ; [ DW_TAG_subprogram ]
!276 = metadata !{i32 786478, i32 0, metadata !78, metadata !"is_zero", metadata !"is_zero", metadata !"_ZNK11ap_int_baseILi512ELb0ELb0EE7is_zeroEv", metadata !79, i32 2642, metadata !240, i1 false, i1 false, i32 0, i32 0, null, i32 256, i1 false, null, null, i32 0, metadata !91, i32 2642} ; [ DW_TAG_subprogram ]
!277 = metadata !{i32 786478, i32 0, metadata !78, metadata !"sign", metadata !"sign", metadata !"_ZNK11ap_int_baseILi512ELb0ELb0EE4signEv", metadata !79, i32 2647, metadata !240, i1 false, i1 false, i32 0, i32 0, null, i32 256, i1 false, null, null, i32 0, metadata !91, i32 2647} ; [ DW_TAG_subprogram ]
!278 = metadata !{i32 786478, i32 0, metadata !78, metadata !"clear", metadata !"clear", metadata !"_ZN11ap_int_baseILi512ELb0ELb0EE5clearEi", metadata !79, i32 2655, metadata !140, i1 false, i1 false, i32 0, i32 0, null, i32 256, i1 false, null, null, i32 0, metadata !91, i32 2655} ; [ DW_TAG_subprogram ]
!279 = metadata !{i32 786478, i32 0, metadata !78, metadata !"invert", metadata !"invert", metadata !"_ZN11ap_int_baseILi512ELb0ELb0EE6invertEi", metadata !79, i32 2661, metadata !140, i1 false, i1 false, i32 0, i32 0, null, i32 256, i1 false, null, null, i32 0, metadata !91, i32 2661} ; [ DW_TAG_subprogram ]
!280 = metadata !{i32 786478, i32 0, metadata !78, metadata !"test", metadata !"test", metadata !"_ZNK11ap_int_baseILi512ELb0ELb0EE4testEi", metadata !79, i32 2669, metadata !281, i1 false, i1 false, i32 0, i32 0, null, i32 256, i1 false, null, null, i32 0, metadata !91, i32 2669} ; [ DW_TAG_subprogram ]
!281 = metadata !{i32 786453, i32 0, metadata !"", i32 0, i32 0, i64 0, i64 0, i64 0, i32 0, null, metadata !282, i32 0, i32 0} ; [ DW_TAG_subroutine_type ]
!282 = metadata !{metadata !101, metadata !238, metadata !71}
!283 = metadata !{i32 786478, i32 0, metadata !78, metadata !"set", metadata !"set", metadata !"_ZN11ap_int_baseILi512ELb0ELb0EE3setEi", metadata !79, i32 2675, metadata !140, i1 false, i1 false, i32 0, i32 0, null, i32 256, i1 false, null, null, i32 0, metadata !91, i32 2675} ; [ DW_TAG_subprogram ]
!284 = metadata !{i32 786478, i32 0, metadata !78, metadata !"set", metadata !"set", metadata !"_ZN11ap_int_baseILi512ELb0ELb0EE3setEib", metadata !79, i32 2681, metadata !285, i1 false, i1 false, i32 0, i32 0, null, i32 256, i1 false, null, null, i32 0, metadata !91, i32 2681} ; [ DW_TAG_subprogram ]
!285 = metadata !{i32 786453, i32 0, metadata !"", i32 0, i32 0, i64 0, i64 0, i64 0, i32 0, null, metadata !286, i32 0, i32 0} ; [ DW_TAG_subroutine_type ]
!286 = metadata !{null, metadata !105, metadata !71, metadata !101}
!287 = metadata !{i32 786478, i32 0, metadata !78, metadata !"lrotate", metadata !"lrotate", metadata !"_ZN11ap_int_baseILi512ELb0ELb0EE7lrotateEi", metadata !79, i32 2688, metadata !140, i1 false, i1 false, i32 0, i32 0, null, i32 256, i1 false, null, null, i32 0, metadata !91, i32 2688} ; [ DW_TAG_subprogram ]
!288 = metadata !{i32 786478, i32 0, metadata !78, metadata !"rrotate", metadata !"rrotate", metadata !"_ZN11ap_int_baseILi512ELb0ELb0EE7rrotateEi", metadata !79, i32 2697, metadata !140, i1 false, i1 false, i32 0, i32 0, null, i32 256, i1 false, null, null, i32 0, metadata !91, i32 2697} ; [ DW_TAG_subprogram ]
!289 = metadata !{i32 786478, i32 0, metadata !78, metadata !"set_bit", metadata !"set_bit", metadata !"_ZN11ap_int_baseILi512ELb0ELb0EE7set_bitEib", metadata !79, i32 2705, metadata !285, i1 false, i1 false, i32 0, i32 0, null, i32 256, i1 false, null, null, i32 0, metadata !91, i32 2705} ; [ DW_TAG_subprogram ]
!290 = metadata !{i32 786478, i32 0, metadata !78, metadata !"get_bit", metadata !"get_bit", metadata !"_ZNK11ap_int_baseILi512ELb0ELb0EE7get_bitEi", metadata !79, i32 2710, metadata !281, i1 false, i1 false, i32 0, i32 0, null, i32 256, i1 false, null, null, i32 0, metadata !91, i32 2710} ; [ DW_TAG_subprogram ]
!291 = metadata !{i32 786478, i32 0, metadata !78, metadata !"b_not", metadata !"b_not", metadata !"_ZN11ap_int_baseILi512ELb0ELb0EE5b_notEv", metadata !79, i32 2715, metadata !103, i1 false, i1 false, i32 0, i32 0, null, i32 256, i1 false, null, null, i32 0, metadata !91, i32 2715} ; [ DW_TAG_subprogram ]
!292 = metadata !{i32 786478, i32 0, metadata !78, metadata !"countLeadingZeros", metadata !"countLeadingZeros", metadata !"_ZN11ap_int_baseILi512ELb0ELb0EE17countLeadingZerosEv", metadata !79, i32 2722, metadata !293, i1 false, i1 false, i32 0, i32 0, null, i32 256, i1 false, null, null, i32 0, metadata !91, i32 2722} ; [ DW_TAG_subprogram ]
!293 = metadata !{i32 786453, i32 0, metadata !"", i32 0, i32 0, i64 0, i64 0, i64 0, i32 0, null, metadata !294, i32 0, i32 0} ; [ DW_TAG_subroutine_type ]
!294 = metadata !{metadata !71, metadata !105}
!295 = metadata !{i32 786478, i32 0, metadata !78, metadata !"operator++", metadata !"operator++", metadata !"_ZN11ap_int_baseILi512ELb0ELb0EEppEv", metadata !79, i32 2779, metadata !273, i1 false, i1 false, i32 0, i32 0, null, i32 256, i1 false, null, null, i32 0, metadata !91, i32 2779} ; [ DW_TAG_subprogram ]
!296 = metadata !{i32 786478, i32 0, metadata !78, metadata !"operator--", metadata !"operator--", metadata !"_ZN11ap_int_baseILi512ELb0ELb0EEmmEv", metadata !79, i32 2783, metadata !273, i1 false, i1 false, i32 0, i32 0, null, i32 256, i1 false, null, null, i32 0, metadata !91, i32 2783} ; [ DW_TAG_subprogram ]
!297 = metadata !{i32 786478, i32 0, metadata !78, metadata !"operator++", metadata !"operator++", metadata !"_ZN11ap_int_baseILi512ELb0ELb0EEppEi", metadata !79, i32 2791, metadata !298, i1 false, i1 false, i32 0, i32 0, null, i32 256, i1 false, null, null, i32 0, metadata !91, i32 2791} ; [ DW_TAG_subprogram ]
!298 = metadata !{i32 786453, i32 0, metadata !"", i32 0, i32 0, i64 0, i64 0, i64 0, i32 0, null, metadata !299, i32 0, i32 0} ; [ DW_TAG_subroutine_type ]
!299 = metadata !{metadata !110, metadata !105, metadata !71}
!300 = metadata !{i32 786478, i32 0, metadata !78, metadata !"operator--", metadata !"operator--", metadata !"_ZN11ap_int_baseILi512ELb0ELb0EEmmEi", metadata !79, i32 2796, metadata !298, i1 false, i1 false, i32 0, i32 0, null, i32 256, i1 false, null, null, i32 0, metadata !91, i32 2796} ; [ DW_TAG_subprogram ]
!301 = metadata !{i32 786478, i32 0, metadata !78, metadata !"operator+", metadata !"operator+", metadata !"_ZNK11ap_int_baseILi512ELb0ELb0EEpsEv", metadata !79, i32 2805, metadata !302, i1 false, i1 false, i32 0, i32 0, null, i32 256, i1 false, null, null, i32 0, metadata !91, i32 2805} ; [ DW_TAG_subprogram ]
!302 = metadata !{i32 786453, i32 0, metadata !"", i32 0, i32 0, i64 0, i64 0, i64 0, i32 0, null, metadata !303, i32 0, i32 0} ; [ DW_TAG_subroutine_type ]
!303 = metadata !{metadata !78, metadata !238}
!304 = metadata !{i32 786478, i32 0, metadata !78, metadata !"operator-", metadata !"operator-", metadata !"_ZNK11ap_int_baseILi512ELb0ELb0EEngEv", metadata !79, i32 2809, metadata !305, i1 false, i1 false, i32 0, i32 0, null, i32 256, i1 false, null, null, i32 0, metadata !91, i32 2809} ; [ DW_TAG_subprogram ]
!305 = metadata !{i32 786453, i32 0, metadata !"", i32 0, i32 0, i64 0, i64 0, i64 0, i32 0, null, metadata !306, i32 0, i32 0} ; [ DW_TAG_subroutine_type ]
!306 = metadata !{metadata !307, metadata !238}
!307 = metadata !{i32 786454, metadata !308, metadata !"minus", metadata !79, i32 2368, i64 0, i64 0, i64 0, i32 0, metadata !311} ; [ DW_TAG_typedef ]
!308 = metadata !{i32 786434, metadata !78, metadata !"RType<1, false>", metadata !79, i32 2350, i64 8, i64 8, i32 0, i32 0, null, metadata !235, i32 0, null, metadata !309} ; [ DW_TAG_class_type ]
!309 = metadata !{metadata !310, metadata !113}
!310 = metadata !{i32 786480, null, metadata !"_AP_W2", metadata !71, i64 1, null, i32 0, i32 0} ; [ DW_TAG_template_value_parameter ]
!311 = metadata !{i32 786434, null, metadata !"ap_int_base<513, true, false>", metadata !79, i32 650, i32 0, i32 0, i32 0, i32 4, null, null, i32 0} ; [ DW_TAG_class_type ]
!312 = metadata !{i32 786478, i32 0, metadata !78, metadata !"operator!", metadata !"operator!", metadata !"_ZNK11ap_int_baseILi512ELb0ELb0EEntEv", metadata !79, i32 2816, metadata !240, i1 false, i1 false, i32 0, i32 0, null, i32 256, i1 false, null, null, i32 0, metadata !91, i32 2816} ; [ DW_TAG_subprogram ]
!313 = metadata !{i32 786478, i32 0, metadata !78, metadata !"operator~", metadata !"operator~", metadata !"_ZNK11ap_int_baseILi512ELb0ELb0EEcoEv", metadata !79, i32 2823, metadata !314, i1 false, i1 false, i32 0, i32 0, null, i32 256, i1 false, null, null, i32 0, metadata !91, i32 2823} ; [ DW_TAG_subprogram ]
!314 = metadata !{i32 786453, i32 0, metadata !"", i32 0, i32 0, i64 0, i64 0, i64 0, i32 0, null, metadata !315, i32 0, i32 0} ; [ DW_TAG_subroutine_type ]
!315 = metadata !{metadata !311, metadata !238}
!316 = metadata !{i32 786478, i32 0, metadata !78, metadata !"range", metadata !"range", metadata !"_ZN11ap_int_baseILi512ELb0ELb0EE5rangeEii", metadata !79, i32 2950, metadata !317, i1 false, i1 false, i32 0, i32 0, null, i32 256, i1 false, null, null, i32 0, metadata !91, i32 2950} ; [ DW_TAG_subprogram ]
!317 = metadata !{i32 786453, i32 0, metadata !"", i32 0, i32 0, i64 0, i64 0, i64 0, i32 0, null, metadata !318, i32 0, i32 0} ; [ DW_TAG_subroutine_type ]
!318 = metadata !{metadata !319, metadata !105, metadata !71, metadata !71}
!319 = metadata !{i32 786434, null, metadata !"ap_range_ref<512, false>", metadata !79, i32 923, i64 128, i64 64, i32 0, i32 0, null, metadata !320, i32 0, null, metadata !379} ; [ DW_TAG_class_type ]
!320 = metadata !{metadata !321, metadata !322, metadata !323, metadata !324, metadata !330, metadata !334, metadata !338, metadata !341, metadata !345, metadata !348, metadata !352, metadata !355, metadata !356, metadata !359, metadata !362, metadata !365, metadata !368, metadata !371, metadata !374, metadata !375, metadata !376}
!321 = metadata !{i32 786445, metadata !319, metadata !"d_bv", metadata !79, i32 924, i64 64, i64 64, i64 0, i32 0, metadata !195} ; [ DW_TAG_member ]
!322 = metadata !{i32 786445, metadata !319, metadata !"l_index", metadata !79, i32 925, i64 32, i64 32, i64 64, i32 0, metadata !71} ; [ DW_TAG_member ]
!323 = metadata !{i32 786445, metadata !319, metadata !"h_index", metadata !79, i32 926, i64 32, i64 32, i64 96, i32 0, metadata !71} ; [ DW_TAG_member ]
!324 = metadata !{i32 786478, i32 0, metadata !319, metadata !"ap_range_ref", metadata !"ap_range_ref", metadata !"", metadata !79, i32 929, metadata !325, i1 false, i1 false, i32 0, i32 0, null, i32 256, i1 false, null, null, i32 0, metadata !91, i32 929} ; [ DW_TAG_subprogram ]
!325 = metadata !{i32 786453, i32 0, metadata !"", i32 0, i32 0, i64 0, i64 0, i64 0, i32 0, null, metadata !326, i32 0, i32 0} ; [ DW_TAG_subroutine_type ]
!326 = metadata !{null, metadata !327, metadata !328}
!327 = metadata !{i32 786447, i32 0, metadata !"", i32 0, i32 0, i64 64, i64 64, i64 0, i32 64, metadata !319} ; [ DW_TAG_pointer_type ]
!328 = metadata !{i32 786448, null, null, null, i32 0, i64 0, i64 0, i64 0, i32 0, metadata !329} ; [ DW_TAG_reference_type ]
!329 = metadata !{i32 786470, null, metadata !"", null, i32 0, i64 0, i64 0, i64 0, i32 0, metadata !319} ; [ DW_TAG_const_type ]
!330 = metadata !{i32 786478, i32 0, metadata !319, metadata !"ap_range_ref", metadata !"ap_range_ref", metadata !"", metadata !79, i32 932, metadata !331, i1 false, i1 false, i32 0, i32 0, null, i32 256, i1 false, null, null, i32 0, metadata !91, i32 932} ; [ DW_TAG_subprogram ]
!331 = metadata !{i32 786453, i32 0, metadata !"", i32 0, i32 0, i64 0, i64 0, i64 0, i32 0, null, metadata !332, i32 0, i32 0} ; [ DW_TAG_subroutine_type ]
!332 = metadata !{null, metadata !327, metadata !333, metadata !71, metadata !71}
!333 = metadata !{i32 786447, null, metadata !"", null, i32 0, i64 64, i64 64, i64 0, i32 0, metadata !78} ; [ DW_TAG_pointer_type ]
!334 = metadata !{i32 786478, i32 0, metadata !319, metadata !"operator ap_int_base", metadata !"operator ap_int_base", metadata !"_ZNK12ap_range_refILi512ELb0EEcv11ap_int_baseILi512ELb0ELb0EEEv", metadata !79, i32 937, metadata !335, i1 false, i1 false, i32 0, i32 0, null, i32 256, i1 false, null, null, i32 0, metadata !91, i32 937} ; [ DW_TAG_subprogram ]
!335 = metadata !{i32 786453, i32 0, metadata !"", i32 0, i32 0, i64 0, i64 0, i64 0, i32 0, null, metadata !336, i32 0, i32 0} ; [ DW_TAG_subroutine_type ]
!336 = metadata !{metadata !78, metadata !337}
!337 = metadata !{i32 786447, i32 0, metadata !"", i32 0, i32 0, i64 64, i64 64, i64 0, i32 64, metadata !329} ; [ DW_TAG_pointer_type ]
!338 = metadata !{i32 786478, i32 0, metadata !319, metadata !"operator unsigned long long", metadata !"operator unsigned long long", metadata !"_ZNK12ap_range_refILi512ELb0EEcvyEv", metadata !79, i32 943, metadata !339, i1 false, i1 false, i32 0, i32 0, null, i32 256, i1 false, null, null, i32 0, metadata !91, i32 943} ; [ DW_TAG_subprogram ]
!339 = metadata !{i32 786453, i32 0, metadata !"", i32 0, i32 0, i64 0, i64 0, i64 0, i32 0, null, metadata !340, i32 0, i32 0} ; [ DW_TAG_subroutine_type ]
!340 = metadata !{metadata !163, metadata !337}
!341 = metadata !{i32 786478, i32 0, metadata !319, metadata !"operator=", metadata !"operator=", metadata !"_ZN12ap_range_refILi512ELb0EEaSEy", metadata !79, i32 947, metadata !342, i1 false, i1 false, i32 0, i32 0, null, i32 256, i1 false, null, null, i32 0, metadata !91, i32 947} ; [ DW_TAG_subprogram ]
!342 = metadata !{i32 786453, i32 0, metadata !"", i32 0, i32 0, i64 0, i64 0, i64 0, i32 0, null, metadata !343, i32 0, i32 0} ; [ DW_TAG_subroutine_type ]
!343 = metadata !{metadata !344, metadata !327, metadata !163}
!344 = metadata !{i32 786448, null, null, null, i32 0, i64 0, i64 0, i64 0, i32 0, metadata !319} ; [ DW_TAG_reference_type ]
!345 = metadata !{i32 786478, i32 0, metadata !319, metadata !"operator=", metadata !"operator=", metadata !"_ZN12ap_range_refILi512ELb0EEaSERKS0_", metadata !79, i32 965, metadata !346, i1 false, i1 false, i32 0, i32 0, null, i32 256, i1 false, null, null, i32 0, metadata !91, i32 965} ; [ DW_TAG_subprogram ]
!346 = metadata !{i32 786453, i32 0, metadata !"", i32 0, i32 0, i64 0, i64 0, i64 0, i32 0, null, metadata !347, i32 0, i32 0} ; [ DW_TAG_subroutine_type ]
!347 = metadata !{metadata !344, metadata !327, metadata !328}
!348 = metadata !{i32 786478, i32 0, metadata !319, metadata !"operator,", metadata !"operator,", metadata !"_ZN12ap_range_refILi512ELb0EEcmER11ap_int_baseILi512ELb0ELb0EE", metadata !79, i32 1020, metadata !349, i1 false, i1 false, i32 0, i32 0, null, i32 256, i1 false, null, null, i32 0, metadata !91, i32 1020} ; [ DW_TAG_subprogram ]
!349 = metadata !{i32 786453, i32 0, metadata !"", i32 0, i32 0, i64 0, i64 0, i64 0, i32 0, null, metadata !350, i32 0, i32 0} ; [ DW_TAG_subroutine_type ]
!350 = metadata !{metadata !351, metadata !327, metadata !195}
!351 = metadata !{i32 786434, null, metadata !"ap_concat_ref<512, ap_range_ref<512, false>, 512, ap_int_base<512, false, false> >", metadata !79, i32 686, i32 0, i32 0, i32 0, i32 4, null, null, i32 0} ; [ DW_TAG_class_type ]
!352 = metadata !{i32 786478, i32 0, metadata !319, metadata !"length", metadata !"length", metadata !"_ZNK12ap_range_refILi512ELb0EE6lengthEv", metadata !79, i32 1131, metadata !353, i1 false, i1 false, i32 0, i32 0, null, i32 256, i1 false, null, null, i32 0, metadata !91, i32 1131} ; [ DW_TAG_subprogram ]
!353 = metadata !{i32 786453, i32 0, metadata !"", i32 0, i32 0, i64 0, i64 0, i64 0, i32 0, null, metadata !354, i32 0, i32 0} ; [ DW_TAG_subroutine_type ]
!354 = metadata !{metadata !71, metadata !337}
!355 = metadata !{i32 786478, i32 0, metadata !319, metadata !"to_int", metadata !"to_int", metadata !"_ZNK12ap_range_refILi512ELb0EE6to_intEv", metadata !79, i32 1135, metadata !353, i1 false, i1 false, i32 0, i32 0, null, i32 256, i1 false, null, null, i32 0, metadata !91, i32 1135} ; [ DW_TAG_subprogram ]
!356 = metadata !{i32 786478, i32 0, metadata !319, metadata !"to_uint", metadata !"to_uint", metadata !"_ZNK12ap_range_refILi512ELb0EE7to_uintEv", metadata !79, i32 1138, metadata !357, i1 false, i1 false, i32 0, i32 0, null, i32 256, i1 false, null, null, i32 0, metadata !91, i32 1138} ; [ DW_TAG_subprogram ]
!357 = metadata !{i32 786453, i32 0, metadata !"", i32 0, i32 0, i64 0, i64 0, i64 0, i32 0, null, metadata !358, i32 0, i32 0} ; [ DW_TAG_subroutine_type ]
!358 = metadata !{metadata !145, metadata !337}
!359 = metadata !{i32 786478, i32 0, metadata !319, metadata !"to_long", metadata !"to_long", metadata !"_ZNK12ap_range_refILi512ELb0EE7to_longEv", metadata !79, i32 1141, metadata !360, i1 false, i1 false, i32 0, i32 0, null, i32 256, i1 false, null, null, i32 0, metadata !91, i32 1141} ; [ DW_TAG_subprogram ]
!360 = metadata !{i32 786453, i32 0, metadata !"", i32 0, i32 0, i64 0, i64 0, i64 0, i32 0, null, metadata !361, i32 0, i32 0} ; [ DW_TAG_subroutine_type ]
!361 = metadata !{metadata !149, metadata !337}
!362 = metadata !{i32 786478, i32 0, metadata !319, metadata !"to_ulong", metadata !"to_ulong", metadata !"_ZNK12ap_range_refILi512ELb0EE8to_ulongEv", metadata !79, i32 1144, metadata !363, i1 false, i1 false, i32 0, i32 0, null, i32 256, i1 false, null, null, i32 0, metadata !91, i32 1144} ; [ DW_TAG_subprogram ]
!363 = metadata !{i32 786453, i32 0, metadata !"", i32 0, i32 0, i64 0, i64 0, i64 0, i32 0, null, metadata !364, i32 0, i32 0} ; [ DW_TAG_subroutine_type ]
!364 = metadata !{metadata !153, metadata !337}
!365 = metadata !{i32 786478, i32 0, metadata !319, metadata !"to_int64", metadata !"to_int64", metadata !"_ZNK12ap_range_refILi512ELb0EE8to_int64Ev", metadata !79, i32 1147, metadata !366, i1 false, i1 false, i32 0, i32 0, null, i32 256, i1 false, null, null, i32 0, metadata !91, i32 1147} ; [ DW_TAG_subprogram ]
!366 = metadata !{i32 786453, i32 0, metadata !"", i32 0, i32 0, i64 0, i64 0, i64 0, i32 0, null, metadata !367, i32 0, i32 0} ; [ DW_TAG_subroutine_type ]
!367 = metadata !{metadata !157, metadata !337}
!368 = metadata !{i32 786478, i32 0, metadata !319, metadata !"to_uint64", metadata !"to_uint64", metadata !"_ZNK12ap_range_refILi512ELb0EE9to_uint64Ev", metadata !79, i32 1150, metadata !369, i1 false, i1 false, i32 0, i32 0, null, i32 256, i1 false, null, null, i32 0, metadata !91, i32 1150} ; [ DW_TAG_subprogram ]
!369 = metadata !{i32 786453, i32 0, metadata !"", i32 0, i32 0, i64 0, i64 0, i64 0, i32 0, null, metadata !370, i32 0, i32 0} ; [ DW_TAG_subroutine_type ]
!370 = metadata !{metadata !162, metadata !337}
!371 = metadata !{i32 786478, i32 0, metadata !319, metadata !"and_reduce", metadata !"and_reduce", metadata !"_ZNK12ap_range_refILi512ELb0EE10and_reduceEv", metadata !79, i32 1153, metadata !372, i1 false, i1 false, i32 0, i32 0, null, i32 256, i1 false, null, null, i32 0, metadata !91, i32 1153} ; [ DW_TAG_subprogram ]
!372 = metadata !{i32 786453, i32 0, metadata !"", i32 0, i32 0, i64 0, i64 0, i64 0, i32 0, null, metadata !373, i32 0, i32 0} ; [ DW_TAG_subroutine_type ]
!373 = metadata !{metadata !101, metadata !337}
!374 = metadata !{i32 786478, i32 0, metadata !319, metadata !"or_reduce", metadata !"or_reduce", metadata !"_ZNK12ap_range_refILi512ELb0EE9or_reduceEv", metadata !79, i32 1164, metadata !372, i1 false, i1 false, i32 0, i32 0, null, i32 256, i1 false, null, null, i32 0, metadata !91, i32 1164} ; [ DW_TAG_subprogram ]
!375 = metadata !{i32 786478, i32 0, metadata !319, metadata !"xor_reduce", metadata !"xor_reduce", metadata !"_ZNK12ap_range_refILi512ELb0EE10xor_reduceEv", metadata !79, i32 1175, metadata !372, i1 false, i1 false, i32 0, i32 0, null, i32 256, i1 false, null, null, i32 0, metadata !91, i32 1175} ; [ DW_TAG_subprogram ]
!376 = metadata !{i32 786478, i32 0, metadata !319, metadata !"~ap_range_ref", metadata !"~ap_range_ref", metadata !"", metadata !79, i32 923, metadata !377, i1 false, i1 false, i32 0, i32 0, null, i32 320, i1 false, null, null, i32 0, metadata !91, i32 923} ; [ DW_TAG_subprogram ]
!377 = metadata !{i32 786453, i32 0, metadata !"", i32 0, i32 0, i64 0, i64 0, i64 0, i32 0, null, metadata !378, i32 0, i32 0} ; [ DW_TAG_subroutine_type ]
!378 = metadata !{null, metadata !327}
!379 = metadata !{metadata !380, metadata !100}
!380 = metadata !{i32 786480, null, metadata !"_AP_W", metadata !71, i64 512, null, i32 0, i32 0} ; [ DW_TAG_template_value_parameter ]
!381 = metadata !{i32 786478, i32 0, metadata !78, metadata !"operator()", metadata !"operator()", metadata !"_ZN11ap_int_baseILi512ELb0ELb0EEclEii", metadata !79, i32 2956, metadata !317, i1 false, i1 false, i32 0, i32 0, null, i32 256, i1 false, null, null, i32 0, metadata !91, i32 2956} ; [ DW_TAG_subprogram ]
!382 = metadata !{i32 786478, i32 0, metadata !78, metadata !"range", metadata !"range", metadata !"_ZNK11ap_int_baseILi512ELb0ELb0EE5rangeEii", metadata !79, i32 2962, metadata !383, i1 false, i1 false, i32 0, i32 0, null, i32 256, i1 false, null, null, i32 0, metadata !91, i32 2962} ; [ DW_TAG_subprogram ]
!383 = metadata !{i32 786453, i32 0, metadata !"", i32 0, i32 0, i64 0, i64 0, i64 0, i32 0, null, metadata !384, i32 0, i32 0} ; [ DW_TAG_subroutine_type ]
!384 = metadata !{metadata !319, metadata !238, metadata !71, metadata !71}
!385 = metadata !{i32 786478, i32 0, metadata !78, metadata !"operator()", metadata !"operator()", metadata !"_ZNK11ap_int_baseILi512ELb0ELb0EEclEii", metadata !79, i32 2968, metadata !383, i1 false, i1 false, i32 0, i32 0, null, i32 256, i1 false, null, null, i32 0, metadata !91, i32 2968} ; [ DW_TAG_subprogram ]
!386 = metadata !{i32 786478, i32 0, metadata !78, metadata !"operator[]", metadata !"operator[]", metadata !"_ZN11ap_int_baseILi512ELb0ELb0EEixEi", metadata !79, i32 2988, metadata !387, i1 false, i1 false, i32 0, i32 0, null, i32 256, i1 false, null, null, i32 0, metadata !91, i32 2988} ; [ DW_TAG_subprogram ]
!387 = metadata !{i32 786453, i32 0, metadata !"", i32 0, i32 0, i64 0, i64 0, i64 0, i32 0, null, metadata !388, i32 0, i32 0} ; [ DW_TAG_subroutine_type ]
!388 = metadata !{metadata !389, metadata !105, metadata !71}
!389 = metadata !{i32 786434, null, metadata !"ap_bit_ref<512, false>", metadata !79, i32 1193, i32 0, i32 0, i32 0, i32 4, null, null, i32 0} ; [ DW_TAG_class_type ]
!390 = metadata !{i32 786478, i32 0, metadata !78, metadata !"operator[]", metadata !"operator[]", metadata !"_ZNK11ap_int_baseILi512ELb0ELb0EEixEi", metadata !79, i32 3002, metadata !281, i1 false, i1 false, i32 0, i32 0, null, i32 256, i1 false, null, null, i32 0, metadata !91, i32 3002} ; [ DW_TAG_subprogram ]
!391 = metadata !{i32 786478, i32 0, metadata !78, metadata !"bit", metadata !"bit", metadata !"_ZN11ap_int_baseILi512ELb0ELb0EE3bitEi", metadata !79, i32 3016, metadata !387, i1 false, i1 false, i32 0, i32 0, null, i32 256, i1 false, null, null, i32 0, metadata !91, i32 3016} ; [ DW_TAG_subprogram ]
!392 = metadata !{i32 786478, i32 0, metadata !78, metadata !"bit", metadata !"bit", metadata !"_ZNK11ap_int_baseILi512ELb0ELb0EE3bitEi", metadata !79, i32 3030, metadata !281, i1 false, i1 false, i32 0, i32 0, null, i32 256, i1 false, null, null, i32 0, metadata !91, i32 3030} ; [ DW_TAG_subprogram ]
!393 = metadata !{i32 786478, i32 0, metadata !78, metadata !"and_reduce", metadata !"and_reduce", metadata !"_ZN11ap_int_baseILi512ELb0ELb0EE10and_reduceEv", metadata !79, i32 3210, metadata !394, i1 false, i1 false, i32 0, i32 0, null, i32 256, i1 false, null, null, i32 0, metadata !91, i32 3210} ; [ DW_TAG_subprogram ]
!394 = metadata !{i32 786453, i32 0, metadata !"", i32 0, i32 0, i64 0, i64 0, i64 0, i32 0, null, metadata !395, i32 0, i32 0} ; [ DW_TAG_subroutine_type ]
!395 = metadata !{metadata !101, metadata !105}
!396 = metadata !{i32 786478, i32 0, metadata !78, metadata !"nand_reduce", metadata !"nand_reduce", metadata !"_ZN11ap_int_baseILi512ELb0ELb0EE11nand_reduceEv", metadata !79, i32 3213, metadata !394, i1 false, i1 false, i32 0, i32 0, null, i32 256, i1 false, null, null, i32 0, metadata !91, i32 3213} ; [ DW_TAG_subprogram ]
!397 = metadata !{i32 786478, i32 0, metadata !78, metadata !"or_reduce", metadata !"or_reduce", metadata !"_ZN11ap_int_baseILi512ELb0ELb0EE9or_reduceEv", metadata !79, i32 3216, metadata !394, i1 false, i1 false, i32 0, i32 0, null, i32 256, i1 false, null, null, i32 0, metadata !91, i32 3216} ; [ DW_TAG_subprogram ]
!398 = metadata !{i32 786478, i32 0, metadata !78, metadata !"nor_reduce", metadata !"nor_reduce", metadata !"_ZN11ap_int_baseILi512ELb0ELb0EE10nor_reduceEv", metadata !79, i32 3219, metadata !394, i1 false, i1 false, i32 0, i32 0, null, i32 256, i1 false, null, null, i32 0, metadata !91, i32 3219} ; [ DW_TAG_subprogram ]
!399 = metadata !{i32 786478, i32 0, metadata !78, metadata !"xor_reduce", metadata !"xor_reduce", metadata !"_ZN11ap_int_baseILi512ELb0ELb0EE10xor_reduceEv", metadata !79, i32 3222, metadata !394, i1 false, i1 false, i32 0, i32 0, null, i32 256, i1 false, null, null, i32 0, metadata !91, i32 3222} ; [ DW_TAG_subprogram ]
!400 = metadata !{i32 786478, i32 0, metadata !78, metadata !"xnor_reduce", metadata !"xnor_reduce", metadata !"_ZN11ap_int_baseILi512ELb0ELb0EE11xnor_reduceEv", metadata !79, i32 3225, metadata !394, i1 false, i1 false, i32 0, i32 0, null, i32 256, i1 false, null, null, i32 0, metadata !91, i32 3225} ; [ DW_TAG_subprogram ]
!401 = metadata !{i32 786478, i32 0, metadata !78, metadata !"and_reduce", metadata !"and_reduce", metadata !"_ZNK11ap_int_baseILi512ELb0ELb0EE10and_reduceEv", metadata !79, i32 3229, metadata !240, i1 false, i1 false, i32 0, i32 0, null, i32 256, i1 false, null, null, i32 0, metadata !91, i32 3229} ; [ DW_TAG_subprogram ]
!402 = metadata !{i32 786478, i32 0, metadata !78, metadata !"nand_reduce", metadata !"nand_reduce", metadata !"_ZNK11ap_int_baseILi512ELb0ELb0EE11nand_reduceEv", metadata !79, i32 3232, metadata !240, i1 false, i1 false, i32 0, i32 0, null, i32 256, i1 false, null, null, i32 0, metadata !91, i32 3232} ; [ DW_TAG_subprogram ]
!403 = metadata !{i32 786478, i32 0, metadata !78, metadata !"or_reduce", metadata !"or_reduce", metadata !"_ZNK11ap_int_baseILi512ELb0ELb0EE9or_reduceEv", metadata !79, i32 3235, metadata !240, i1 false, i1 false, i32 0, i32 0, null, i32 256, i1 false, null, null, i32 0, metadata !91, i32 3235} ; [ DW_TAG_subprogram ]
!404 = metadata !{i32 786478, i32 0, metadata !78, metadata !"nor_reduce", metadata !"nor_reduce", metadata !"_ZNK11ap_int_baseILi512ELb0ELb0EE10nor_reduceEv", metadata !79, i32 3238, metadata !240, i1 false, i1 false, i32 0, i32 0, null, i32 256, i1 false, null, null, i32 0, metadata !91, i32 3238} ; [ DW_TAG_subprogram ]
!405 = metadata !{i32 786478, i32 0, metadata !78, metadata !"xor_reduce", metadata !"xor_reduce", metadata !"_ZNK11ap_int_baseILi512ELb0ELb0EE10xor_reduceEv", metadata !79, i32 3241, metadata !240, i1 false, i1 false, i32 0, i32 0, null, i32 256, i1 false, null, null, i32 0, metadata !91, i32 3241} ; [ DW_TAG_subprogram ]
!406 = metadata !{i32 786478, i32 0, metadata !78, metadata !"xnor_reduce", metadata !"xnor_reduce", metadata !"_ZNK11ap_int_baseILi512ELb0ELb0EE11xnor_reduceEv", metadata !79, i32 3244, metadata !240, i1 false, i1 false, i32 0, i32 0, null, i32 256, i1 false, null, null, i32 0, metadata !91, i32 3244} ; [ DW_TAG_subprogram ]
!407 = metadata !{i32 786478, i32 0, metadata !78, metadata !"to_string", metadata !"to_string", metadata !"_ZNK11ap_int_baseILi512ELb0ELb0EE9to_stringEPci8BaseModeb", metadata !79, i32 3251, metadata !408, i1 false, i1 false, i32 0, i32 0, null, i32 256, i1 false, null, null, i32 0, metadata !91, i32 3251} ; [ DW_TAG_subprogram ]
!408 = metadata !{i32 786453, i32 0, metadata !"", i32 0, i32 0, i64 0, i64 0, i64 0, i32 0, null, metadata !409, i32 0, i32 0} ; [ DW_TAG_subroutine_type ]
!409 = metadata !{null, metadata !238, metadata !410, metadata !71, metadata !411, metadata !101}
!410 = metadata !{i32 786447, null, metadata !"", null, i32 0, i64 64, i64 64, i64 0, i32 0, metadata !177} ; [ DW_TAG_pointer_type ]
!411 = metadata !{i32 786436, null, metadata !"BaseMode", metadata !79, i32 602, i64 5, i64 8, i32 0, i32 0, null, metadata !412, i32 0, i32 0} ; [ DW_TAG_enumeration_type ]
!412 = metadata !{metadata !413, metadata !414, metadata !415, metadata !416}
!413 = metadata !{i32 786472, metadata !"SC_BIN", i64 2} ; [ DW_TAG_enumerator ]
!414 = metadata !{i32 786472, metadata !"SC_OCT", i64 8} ; [ DW_TAG_enumerator ]
!415 = metadata !{i32 786472, metadata !"SC_DEC", i64 10} ; [ DW_TAG_enumerator ]
!416 = metadata !{i32 786472, metadata !"SC_HEX", i64 16} ; [ DW_TAG_enumerator ]
!417 = metadata !{i32 786478, i32 0, metadata !78, metadata !"to_string", metadata !"to_string", metadata !"_ZNK11ap_int_baseILi512ELb0ELb0EE9to_stringE8BaseModeb", metadata !79, i32 3278, metadata !418, i1 false, i1 false, i32 0, i32 0, null, i32 256, i1 false, null, null, i32 0, metadata !91, i32 3278} ; [ DW_TAG_subprogram ]
!418 = metadata !{i32 786453, i32 0, metadata !"", i32 0, i32 0, i64 0, i64 0, i64 0, i32 0, null, metadata !419, i32 0, i32 0} ; [ DW_TAG_subroutine_type ]
!419 = metadata !{metadata !410, metadata !238, metadata !411, metadata !101}
!420 = metadata !{i32 786478, i32 0, metadata !78, metadata !"to_string", metadata !"to_string", metadata !"_ZNK11ap_int_baseILi512ELb0ELb0EE9to_stringEab", metadata !79, i32 3282, metadata !421, i1 false, i1 false, i32 0, i32 0, null, i32 256, i1 false, null, null, i32 0, metadata !91, i32 3282} ; [ DW_TAG_subprogram ]
!421 = metadata !{i32 786453, i32 0, metadata !"", i32 0, i32 0, i64 0, i64 0, i64 0, i32 0, null, metadata !422, i32 0, i32 0} ; [ DW_TAG_subroutine_type ]
!422 = metadata !{metadata !410, metadata !238, metadata !126, metadata !101}
!423 = metadata !{i32 786478, i32 0, metadata !78, metadata !"ap_int_base", metadata !"ap_int_base", metadata !"", metadata !79, i32 2341, metadata !107, i1 false, i1 false, i32 0, i32 0, null, i32 320, i1 false, null, null, i32 0, metadata !91, i32 2341} ; [ DW_TAG_subprogram ]
!424 = metadata !{metadata !380, metadata !100, metadata !425}
!425 = metadata !{i32 786480, null, metadata !"_AP_C", metadata !101, i64 0, null, i32 0, i32 0} ; [ DW_TAG_template_value_parameter ]
!426 = metadata !{i32 786478, i32 0, metadata !74, metadata !"ap_uint", metadata !"ap_uint", metadata !"", metadata !75, i32 183, metadata !427, i1 false, i1 false, i32 0, i32 0, null, i32 256, i1 false, null, null, i32 0, metadata !91, i32 183} ; [ DW_TAG_subprogram ]
!427 = metadata !{i32 786453, i32 0, metadata !"", i32 0, i32 0, i64 0, i64 0, i64 0, i32 0, null, metadata !428, i32 0, i32 0} ; [ DW_TAG_subroutine_type ]
!428 = metadata !{null, metadata !429}
!429 = metadata !{i32 786447, i32 0, metadata !"", i32 0, i32 0, i64 64, i64 64, i64 0, i32 64, metadata !74} ; [ DW_TAG_pointer_type ]
!430 = metadata !{i32 786478, i32 0, metadata !74, metadata !"ap_uint<512>", metadata !"ap_uint<512>", metadata !"", metadata !75, i32 185, metadata !431, i1 false, i1 false, i32 0, i32 0, null, i32 256, i1 false, null, metadata !435, i32 0, metadata !91, i32 185} ; [ DW_TAG_subprogram ]
!431 = metadata !{i32 786453, i32 0, metadata !"", i32 0, i32 0, i64 0, i64 0, i64 0, i32 0, null, metadata !432, i32 0, i32 0} ; [ DW_TAG_subroutine_type ]
!432 = metadata !{null, metadata !429, metadata !433}
!433 = metadata !{i32 786448, null, null, null, i32 0, i64 0, i64 0, i64 0, i32 0, metadata !434} ; [ DW_TAG_reference_type ]
!434 = metadata !{i32 786470, null, metadata !"", null, i32 0, i64 0, i64 0, i64 0, i32 0, metadata !74} ; [ DW_TAG_const_type ]
!435 = metadata !{metadata !112}
!436 = metadata !{i32 786478, i32 0, metadata !74, metadata !"ap_uint<512>", metadata !"ap_uint<512>", metadata !"", metadata !75, i32 191, metadata !437, i1 false, i1 false, i32 0, i32 0, null, i32 256, i1 false, null, metadata !435, i32 0, metadata !91, i32 191} ; [ DW_TAG_subprogram ]
!437 = metadata !{i32 786453, i32 0, metadata !"", i32 0, i32 0, i64 0, i64 0, i64 0, i32 0, null, metadata !438, i32 0, i32 0} ; [ DW_TAG_subroutine_type ]
!438 = metadata !{null, metadata !429, metadata !439}
!439 = metadata !{i32 786448, null, null, null, i32 0, i64 0, i64 0, i64 0, i32 0, metadata !440} ; [ DW_TAG_reference_type ]
!440 = metadata !{i32 786470, null, metadata !"", null, i32 0, i64 0, i64 0, i64 0, i32 0, metadata !441} ; [ DW_TAG_const_type ]
!441 = metadata !{i32 786485, null, metadata !"", null, i32 0, i64 0, i64 0, i64 0, i32 0, metadata !74} ; [ DW_TAG_volatile_type ]
!442 = metadata !{i32 786478, i32 0, metadata !74, metadata !"ap_uint<512, false>", metadata !"ap_uint<512, false>", metadata !"", metadata !75, i32 226, metadata !443, i1 false, i1 false, i32 0, i32 0, null, i32 256, i1 false, null, metadata !111, i32 0, metadata !91, i32 226} ; [ DW_TAG_subprogram ]
!443 = metadata !{i32 786453, i32 0, metadata !"", i32 0, i32 0, i64 0, i64 0, i64 0, i32 0, null, metadata !444, i32 0, i32 0} ; [ DW_TAG_subroutine_type ]
!444 = metadata !{null, metadata !429, metadata !109}
!445 = metadata !{i32 786478, i32 0, metadata !74, metadata !"ap_uint", metadata !"ap_uint", metadata !"", metadata !75, i32 245, metadata !446, i1 false, i1 false, i32 0, i32 0, null, i32 256, i1 false, null, null, i32 0, metadata !91, i32 245} ; [ DW_TAG_subprogram ]
!446 = metadata !{i32 786453, i32 0, metadata !"", i32 0, i32 0, i64 0, i64 0, i64 0, i32 0, null, metadata !447, i32 0, i32 0} ; [ DW_TAG_subroutine_type ]
!447 = metadata !{null, metadata !429, metadata !101}
!448 = metadata !{i32 786478, i32 0, metadata !74, metadata !"ap_uint", metadata !"ap_uint", metadata !"", metadata !75, i32 246, metadata !449, i1 false, i1 false, i32 0, i32 0, null, i32 256, i1 false, null, null, i32 0, metadata !91, i32 246} ; [ DW_TAG_subprogram ]
!449 = metadata !{i32 786453, i32 0, metadata !"", i32 0, i32 0, i64 0, i64 0, i64 0, i32 0, null, metadata !450, i32 0, i32 0} ; [ DW_TAG_subroutine_type ]
!450 = metadata !{null, metadata !429, metadata !126}
!451 = metadata !{i32 786478, i32 0, metadata !74, metadata !"ap_uint", metadata !"ap_uint", metadata !"", metadata !75, i32 247, metadata !452, i1 false, i1 false, i32 0, i32 0, null, i32 256, i1 false, null, null, i32 0, metadata !91, i32 247} ; [ DW_TAG_subprogram ]
!452 = metadata !{i32 786453, i32 0, metadata !"", i32 0, i32 0, i64 0, i64 0, i64 0, i32 0, null, metadata !453, i32 0, i32 0} ; [ DW_TAG_subroutine_type ]
!453 = metadata !{null, metadata !429, metadata !130}
!454 = metadata !{i32 786478, i32 0, metadata !74, metadata !"ap_uint", metadata !"ap_uint", metadata !"", metadata !75, i32 248, metadata !455, i1 false, i1 false, i32 0, i32 0, null, i32 256, i1 false, null, null, i32 0, metadata !91, i32 248} ; [ DW_TAG_subprogram ]
!455 = metadata !{i32 786453, i32 0, metadata !"", i32 0, i32 0, i64 0, i64 0, i64 0, i32 0, null, metadata !456, i32 0, i32 0} ; [ DW_TAG_subroutine_type ]
!456 = metadata !{null, metadata !429, metadata !134}
!457 = metadata !{i32 786478, i32 0, metadata !74, metadata !"ap_uint", metadata !"ap_uint", metadata !"", metadata !75, i32 249, metadata !458, i1 false, i1 false, i32 0, i32 0, null, i32 256, i1 false, null, null, i32 0, metadata !91, i32 249} ; [ DW_TAG_subprogram ]
!458 = metadata !{i32 786453, i32 0, metadata !"", i32 0, i32 0, i64 0, i64 0, i64 0, i32 0, null, metadata !459, i32 0, i32 0} ; [ DW_TAG_subroutine_type ]
!459 = metadata !{null, metadata !429, metadata !138}
!460 = metadata !{i32 786478, i32 0, metadata !74, metadata !"ap_uint", metadata !"ap_uint", metadata !"", metadata !75, i32 250, metadata !461, i1 false, i1 false, i32 0, i32 0, null, i32 256, i1 false, null, null, i32 0, metadata !91, i32 250} ; [ DW_TAG_subprogram ]
!461 = metadata !{i32 786453, i32 0, metadata !"", i32 0, i32 0, i64 0, i64 0, i64 0, i32 0, null, metadata !462, i32 0, i32 0} ; [ DW_TAG_subroutine_type ]
!462 = metadata !{null, metadata !429, metadata !71}
!463 = metadata !{i32 786478, i32 0, metadata !74, metadata !"ap_uint", metadata !"ap_uint", metadata !"", metadata !75, i32 251, metadata !464, i1 false, i1 false, i32 0, i32 0, null, i32 256, i1 false, null, null, i32 0, metadata !91, i32 251} ; [ DW_TAG_subprogram ]
!464 = metadata !{i32 786453, i32 0, metadata !"", i32 0, i32 0, i64 0, i64 0, i64 0, i32 0, null, metadata !465, i32 0, i32 0} ; [ DW_TAG_subroutine_type ]
!465 = metadata !{null, metadata !429, metadata !145}
!466 = metadata !{i32 786478, i32 0, metadata !74, metadata !"ap_uint", metadata !"ap_uint", metadata !"", metadata !75, i32 252, metadata !467, i1 false, i1 false, i32 0, i32 0, null, i32 256, i1 false, null, null, i32 0, metadata !91, i32 252} ; [ DW_TAG_subprogram ]
!467 = metadata !{i32 786453, i32 0, metadata !"", i32 0, i32 0, i64 0, i64 0, i64 0, i32 0, null, metadata !468, i32 0, i32 0} ; [ DW_TAG_subroutine_type ]
!468 = metadata !{null, metadata !429, metadata !149}
!469 = metadata !{i32 786478, i32 0, metadata !74, metadata !"ap_uint", metadata !"ap_uint", metadata !"", metadata !75, i32 253, metadata !470, i1 false, i1 false, i32 0, i32 0, null, i32 256, i1 false, null, null, i32 0, metadata !91, i32 253} ; [ DW_TAG_subprogram ]
!470 = metadata !{i32 786453, i32 0, metadata !"", i32 0, i32 0, i64 0, i64 0, i64 0, i32 0, null, metadata !471, i32 0, i32 0} ; [ DW_TAG_subroutine_type ]
!471 = metadata !{null, metadata !429, metadata !153}
!472 = metadata !{i32 786478, i32 0, metadata !74, metadata !"ap_uint", metadata !"ap_uint", metadata !"", metadata !75, i32 254, metadata !473, i1 false, i1 false, i32 0, i32 0, null, i32 256, i1 false, null, null, i32 0, metadata !91, i32 254} ; [ DW_TAG_subprogram ]
!473 = metadata !{i32 786453, i32 0, metadata !"", i32 0, i32 0, i64 0, i64 0, i64 0, i32 0, null, metadata !474, i32 0, i32 0} ; [ DW_TAG_subroutine_type ]
!474 = metadata !{null, metadata !429, metadata !163}
!475 = metadata !{i32 786478, i32 0, metadata !74, metadata !"ap_uint", metadata !"ap_uint", metadata !"", metadata !75, i32 255, metadata !476, i1 false, i1 false, i32 0, i32 0, null, i32 256, i1 false, null, null, i32 0, metadata !91, i32 255} ; [ DW_TAG_subprogram ]
!476 = metadata !{i32 786453, i32 0, metadata !"", i32 0, i32 0, i64 0, i64 0, i64 0, i32 0, null, metadata !477, i32 0, i32 0} ; [ DW_TAG_subroutine_type ]
!477 = metadata !{null, metadata !429, metadata !158}
!478 = metadata !{i32 786478, i32 0, metadata !74, metadata !"ap_uint", metadata !"ap_uint", metadata !"", metadata !75, i32 256, metadata !479, i1 false, i1 false, i32 0, i32 0, null, i32 256, i1 false, null, null, i32 0, metadata !91, i32 256} ; [ DW_TAG_subprogram ]
!479 = metadata !{i32 786453, i32 0, metadata !"", i32 0, i32 0, i64 0, i64 0, i64 0, i32 0, null, metadata !480, i32 0, i32 0} ; [ DW_TAG_subroutine_type ]
!480 = metadata !{null, metadata !429, metadata !167}
!481 = metadata !{i32 786478, i32 0, metadata !74, metadata !"ap_uint", metadata !"ap_uint", metadata !"", metadata !75, i32 257, metadata !482, i1 false, i1 false, i32 0, i32 0, null, i32 256, i1 false, null, null, i32 0, metadata !91, i32 257} ; [ DW_TAG_subprogram ]
!482 = metadata !{i32 786453, i32 0, metadata !"", i32 0, i32 0, i64 0, i64 0, i64 0, i32 0, null, metadata !483, i32 0, i32 0} ; [ DW_TAG_subroutine_type ]
!483 = metadata !{null, metadata !429, metadata !171}
!484 = metadata !{i32 786478, i32 0, metadata !74, metadata !"ap_uint", metadata !"ap_uint", metadata !"", metadata !75, i32 259, metadata !485, i1 false, i1 false, i32 0, i32 0, null, i32 256, i1 false, null, null, i32 0, metadata !91, i32 259} ; [ DW_TAG_subprogram ]
!485 = metadata !{i32 786453, i32 0, metadata !"", i32 0, i32 0, i64 0, i64 0, i64 0, i32 0, null, metadata !486, i32 0, i32 0} ; [ DW_TAG_subroutine_type ]
!486 = metadata !{null, metadata !429, metadata !175}
!487 = metadata !{i32 786478, i32 0, metadata !74, metadata !"ap_uint", metadata !"ap_uint", metadata !"", metadata !75, i32 260, metadata !488, i1 false, i1 false, i32 0, i32 0, null, i32 256, i1 false, null, null, i32 0, metadata !91, i32 260} ; [ DW_TAG_subprogram ]
!488 = metadata !{i32 786453, i32 0, metadata !"", i32 0, i32 0, i64 0, i64 0, i64 0, i32 0, null, metadata !489, i32 0, i32 0} ; [ DW_TAG_subroutine_type ]
!489 = metadata !{null, metadata !429, metadata !175, metadata !126}
!490 = metadata !{i32 786478, i32 0, metadata !74, metadata !"operator=", metadata !"operator=", metadata !"_ZNV7ap_uintILi512EEaSERKS0_", metadata !75, i32 263, metadata !491, i1 false, i1 false, i32 0, i32 0, null, i32 256, i1 false, null, null, i32 0, metadata !91, i32 263} ; [ DW_TAG_subprogram ]
!491 = metadata !{i32 786453, i32 0, metadata !"", i32 0, i32 0, i64 0, i64 0, i64 0, i32 0, null, metadata !492, i32 0, i32 0} ; [ DW_TAG_subroutine_type ]
!492 = metadata !{null, metadata !493, metadata !433}
!493 = metadata !{i32 786447, i32 0, metadata !"", i32 0, i32 0, i64 64, i64 64, i64 0, i32 64, metadata !441} ; [ DW_TAG_pointer_type ]
!494 = metadata !{i32 786478, i32 0, metadata !74, metadata !"operator=", metadata !"operator=", metadata !"_ZNV7ap_uintILi512EEaSERVKS0_", metadata !75, i32 267, metadata !495, i1 false, i1 false, i32 0, i32 0, null, i32 256, i1 false, null, null, i32 0, metadata !91, i32 267} ; [ DW_TAG_subprogram ]
!495 = metadata !{i32 786453, i32 0, metadata !"", i32 0, i32 0, i64 0, i64 0, i64 0, i32 0, null, metadata !496, i32 0, i32 0} ; [ DW_TAG_subroutine_type ]
!496 = metadata !{null, metadata !493, metadata !439}
!497 = metadata !{i32 786478, i32 0, metadata !74, metadata !"operator=", metadata !"operator=", metadata !"_ZN7ap_uintILi512EEaSERVKS0_", metadata !75, i32 271, metadata !498, i1 false, i1 false, i32 0, i32 0, null, i32 256, i1 false, null, null, i32 0, metadata !91, i32 271} ; [ DW_TAG_subprogram ]
!498 = metadata !{i32 786453, i32 0, metadata !"", i32 0, i32 0, i64 0, i64 0, i64 0, i32 0, null, metadata !499, i32 0, i32 0} ; [ DW_TAG_subroutine_type ]
!499 = metadata !{metadata !500, metadata !429, metadata !439}
!500 = metadata !{i32 786448, null, null, null, i32 0, i64 0, i64 0, i64 0, i32 0, metadata !74} ; [ DW_TAG_reference_type ]
!501 = metadata !{i32 786478, i32 0, metadata !74, metadata !"operator=", metadata !"operator=", metadata !"_ZN7ap_uintILi512EEaSERKS0_", metadata !75, i32 276, metadata !502, i1 false, i1 false, i32 0, i32 0, null, i32 256, i1 false, null, null, i32 0, metadata !91, i32 276} ; [ DW_TAG_subprogram ]
!502 = metadata !{i32 786453, i32 0, metadata !"", i32 0, i32 0, i64 0, i64 0, i64 0, i32 0, null, metadata !503, i32 0, i32 0} ; [ DW_TAG_subroutine_type ]
!503 = metadata !{metadata !500, metadata !429, metadata !433}
!504 = metadata !{i32 786478, i32 0, metadata !74, metadata !"ap_uint", metadata !"ap_uint", metadata !"", metadata !75, i32 180, metadata !431, i1 false, i1 false, i32 0, i32 0, null, i32 320, i1 false, null, null, i32 0, metadata !91, i32 180} ; [ DW_TAG_subprogram ]
!505 = metadata !{i32 786478, i32 0, metadata !74, metadata !"~ap_uint", metadata !"~ap_uint", metadata !"", metadata !75, i32 180, metadata !427, i1 false, i1 false, i32 0, i32 0, null, i32 320, i1 false, null, null, i32 0, metadata !91, i32 180} ; [ DW_TAG_subprogram ]
!506 = metadata !{metadata !380}
!507 = metadata !{i32 786447, null, metadata !"", null, i32 0, i64 64, i64 64, i64 0, i32 0, metadata !508} ; [ DW_TAG_pointer_type ]
!508 = metadata !{i32 786454, null, metadata !"action_reg", metadata !68, i32 39, i64 0, i64 0, i64 0, i32 0, metadata !509} ; [ DW_TAG_typedef ]
!509 = metadata !{i32 786434, null, metadata !"", metadata !510, i32 35, i64 1024, i64 64, i32 0, i32 0, null, metadata !511, i32 0, null, null} ; [ DW_TAG_class_type ]
!510 = metadata !{i32 786473, metadata !"./action_doublemult.H", metadata !"/afs/bb/proj/fpga/framework/dcelik/GitRepo/snap_fork/actions/hls_data_transfer/hw", null} ; [ DW_TAG_file_type ]
!511 = metadata !{metadata !512, metadata !2977, metadata !2996}
!512 = metadata !{i32 786445, metadata !509, metadata !"Control", metadata !510, i32 36, i64 128, i64 64, i64 0, i32 0, metadata !513} ; [ DW_TAG_member ]
!513 = metadata !{i32 786454, null, metadata !"CONTROL", metadata !510, i32 70, i64 0, i64 0, i64 0, i32 0, metadata !514} ; [ DW_TAG_typedef ]
!514 = metadata !{i32 786434, null, metadata !"", metadata !515, i32 64, i64 128, i64 64, i32 0, i32 0, null, metadata !516, i32 0, null, null} ; [ DW_TAG_class_type ]
!515 = metadata !{i32 786473, metadata !"/afs/vlsilab.boeblingen.ibm.com/proj/fpga/framework/dcelik/GitRepo/snap_fork/actions/include/hls_snap.H", metadata !"/afs/bb/proj/fpga/framework/dcelik/GitRepo/snap_fork/actions/hls_data_transfer/hw", null} ; [ DW_TAG_file_type ]
!516 = metadata !{metadata !517, metadata !1110, metadata !1111, metadata !1703, metadata !2371}
!517 = metadata !{i32 786445, metadata !514, metadata !"sat", metadata !515, i32 65, i64 8, i64 8, i64 0, i32 0, metadata !518} ; [ DW_TAG_member ]
!518 = metadata !{i32 786454, null, metadata !"snapu8_t", metadata !515, i32 61, i64 0, i64 0, i64 0, i32 0, metadata !519} ; [ DW_TAG_typedef ]
!519 = metadata !{i32 786434, null, metadata !"ap_uint<8>", metadata !75, i32 180, i64 8, i64 8, i32 0, i32 0, null, metadata !520, i32 0, null, metadata !1109} ; [ DW_TAG_class_type ]
!520 = metadata !{metadata !521, metadata !1041, metadata !1045, metadata !1048, metadata !1051, metadata !1054, metadata !1057, metadata !1060, metadata !1063, metadata !1066, metadata !1069, metadata !1072, metadata !1075, metadata !1078, metadata !1081, metadata !1084, metadata !1087, metadata !1090, metadata !1097, metadata !1102, metadata !1106}
!521 = metadata !{i32 786460, metadata !519, null, metadata !75, i32 0, i64 0, i64 0, i64 0, i32 0, metadata !522} ; [ DW_TAG_inheritance ]
!522 = metadata !{i32 786434, null, metadata !"ap_int_base<8, false, true>", metadata !79, i32 1397, i64 8, i64 8, i32 0, i32 0, null, metadata !523, i32 0, null, metadata !1039} ; [ DW_TAG_class_type ]
!523 = metadata !{metadata !524, metadata !533, metadata !537, metadata !540, metadata !543, metadata !546, metadata !549, metadata !552, metadata !555, metadata !558, metadata !561, metadata !564, metadata !567, metadata !570, metadata !573, metadata !576, metadata !579, metadata !582, metadata !587, metadata !592, metadata !597, metadata !598, metadata !602, metadata !605, metadata !608, metadata !611, metadata !614, metadata !617, metadata !620, metadata !623, metadata !626, metadata !629, metadata !632, metadata !635, metadata !644, metadata !647, metadata !650, metadata !653, metadata !656, metadata !659, metadata !662, metadata !665, metadata !668, metadata !671, metadata !674, metadata !677, metadata !680, metadata !681, metadata !685, metadata !688, metadata !689, metadata !690, metadata !691, metadata !692, metadata !693, metadata !696, metadata !697, metadata !700, metadata !701, metadata !702, metadata !703, metadata !704, metadata !705, metadata !708, metadata !709, metadata !710, metadata !713, metadata !714, metadata !717, metadata !718, metadata !1000, metadata !1004, metadata !1005, metadata !1008, metadata !1009, metadata !1013, metadata !1014, metadata !1015, metadata !1016, metadata !1019, metadata !1020, metadata !1021, metadata !1022, metadata !1023, metadata !1024, metadata !1025, metadata !1026, metadata !1027, metadata !1028, metadata !1029, metadata !1030, metadata !1033, metadata !1036}
!524 = metadata !{i32 786460, metadata !522, null, metadata !79, i32 0, i64 0, i64 0, i64 0, i32 0, metadata !525} ; [ DW_TAG_inheritance ]
!525 = metadata !{i32 786434, null, metadata !"ssdm_int<8 + 1024 * 0, false>", metadata !83, i32 10, i64 8, i64 8, i32 0, i32 0, null, metadata !526, i32 0, null, metadata !236} ; [ DW_TAG_class_type ]
!526 = metadata !{metadata !527, metadata !529}
!527 = metadata !{i32 786445, metadata !525, metadata !"V", metadata !83, i32 10, i64 8, i64 8, i64 0, i32 0, metadata !528} ; [ DW_TAG_member ]
!528 = metadata !{i32 786468, null, metadata !"uint8", null, i32 0, i64 8, i64 8, i64 0, i32 0, i32 7} ; [ DW_TAG_base_type ]
!529 = metadata !{i32 786478, i32 0, metadata !525, metadata !"ssdm_int", metadata !"ssdm_int", metadata !"", metadata !83, i32 10, metadata !530, i1 false, i1 false, i32 0, i32 0, null, i32 256, i1 false, null, null, i32 0, metadata !91, i32 10} ; [ DW_TAG_subprogram ]
!530 = metadata !{i32 786453, i32 0, metadata !"", i32 0, i32 0, i64 0, i64 0, i64 0, i32 0, null, metadata !531, i32 0, i32 0} ; [ DW_TAG_subroutine_type ]
!531 = metadata !{null, metadata !532}
!532 = metadata !{i32 786447, i32 0, metadata !"", i32 0, i32 0, i64 64, i64 64, i64 0, i32 64, metadata !525} ; [ DW_TAG_pointer_type ]
!533 = metadata !{i32 786478, i32 0, metadata !522, metadata !"ap_int_base", metadata !"ap_int_base", metadata !"", metadata !79, i32 1438, metadata !534, i1 false, i1 false, i32 0, i32 0, null, i32 256, i1 false, null, null, i32 0, metadata !91, i32 1438} ; [ DW_TAG_subprogram ]
!534 = metadata !{i32 786453, i32 0, metadata !"", i32 0, i32 0, i64 0, i64 0, i64 0, i32 0, null, metadata !535, i32 0, i32 0} ; [ DW_TAG_subroutine_type ]
!535 = metadata !{null, metadata !536}
!536 = metadata !{i32 786447, i32 0, metadata !"", i32 0, i32 0, i64 64, i64 64, i64 0, i32 64, metadata !522} ; [ DW_TAG_pointer_type ]
!537 = metadata !{i32 786478, i32 0, metadata !522, metadata !"ap_int_base", metadata !"ap_int_base", metadata !"", metadata !79, i32 1460, metadata !538, i1 false, i1 false, i32 0, i32 0, null, i32 384, i1 false, null, null, i32 0, metadata !91, i32 1460} ; [ DW_TAG_subprogram ]
!538 = metadata !{i32 786453, i32 0, metadata !"", i32 0, i32 0, i64 0, i64 0, i64 0, i32 0, null, metadata !539, i32 0, i32 0} ; [ DW_TAG_subroutine_type ]
!539 = metadata !{null, metadata !536, metadata !101}
!540 = metadata !{i32 786478, i32 0, metadata !522, metadata !"ap_int_base", metadata !"ap_int_base", metadata !"", metadata !79, i32 1461, metadata !541, i1 false, i1 false, i32 0, i32 0, null, i32 384, i1 false, null, null, i32 0, metadata !91, i32 1461} ; [ DW_TAG_subprogram ]
!541 = metadata !{i32 786453, i32 0, metadata !"", i32 0, i32 0, i64 0, i64 0, i64 0, i32 0, null, metadata !542, i32 0, i32 0} ; [ DW_TAG_subroutine_type ]
!542 = metadata !{null, metadata !536, metadata !126}
!543 = metadata !{i32 786478, i32 0, metadata !522, metadata !"ap_int_base", metadata !"ap_int_base", metadata !"", metadata !79, i32 1462, metadata !544, i1 false, i1 false, i32 0, i32 0, null, i32 384, i1 false, null, null, i32 0, metadata !91, i32 1462} ; [ DW_TAG_subprogram ]
!544 = metadata !{i32 786453, i32 0, metadata !"", i32 0, i32 0, i64 0, i64 0, i64 0, i32 0, null, metadata !545, i32 0, i32 0} ; [ DW_TAG_subroutine_type ]
!545 = metadata !{null, metadata !536, metadata !130}
!546 = metadata !{i32 786478, i32 0, metadata !522, metadata !"ap_int_base", metadata !"ap_int_base", metadata !"", metadata !79, i32 1463, metadata !547, i1 false, i1 false, i32 0, i32 0, null, i32 384, i1 false, null, null, i32 0, metadata !91, i32 1463} ; [ DW_TAG_subprogram ]
!547 = metadata !{i32 786453, i32 0, metadata !"", i32 0, i32 0, i64 0, i64 0, i64 0, i32 0, null, metadata !548, i32 0, i32 0} ; [ DW_TAG_subroutine_type ]
!548 = metadata !{null, metadata !536, metadata !134}
!549 = metadata !{i32 786478, i32 0, metadata !522, metadata !"ap_int_base", metadata !"ap_int_base", metadata !"", metadata !79, i32 1464, metadata !550, i1 false, i1 false, i32 0, i32 0, null, i32 384, i1 false, null, null, i32 0, metadata !91, i32 1464} ; [ DW_TAG_subprogram ]
!550 = metadata !{i32 786453, i32 0, metadata !"", i32 0, i32 0, i64 0, i64 0, i64 0, i32 0, null, metadata !551, i32 0, i32 0} ; [ DW_TAG_subroutine_type ]
!551 = metadata !{null, metadata !536, metadata !138}
!552 = metadata !{i32 786478, i32 0, metadata !522, metadata !"ap_int_base", metadata !"ap_int_base", metadata !"", metadata !79, i32 1465, metadata !553, i1 false, i1 false, i32 0, i32 0, null, i32 384, i1 false, null, null, i32 0, metadata !91, i32 1465} ; [ DW_TAG_subprogram ]
!553 = metadata !{i32 786453, i32 0, metadata !"", i32 0, i32 0, i64 0, i64 0, i64 0, i32 0, null, metadata !554, i32 0, i32 0} ; [ DW_TAG_subroutine_type ]
!554 = metadata !{null, metadata !536, metadata !71}
!555 = metadata !{i32 786478, i32 0, metadata !522, metadata !"ap_int_base", metadata !"ap_int_base", metadata !"", metadata !79, i32 1466, metadata !556, i1 false, i1 false, i32 0, i32 0, null, i32 384, i1 false, null, null, i32 0, metadata !91, i32 1466} ; [ DW_TAG_subprogram ]
!556 = metadata !{i32 786453, i32 0, metadata !"", i32 0, i32 0, i64 0, i64 0, i64 0, i32 0, null, metadata !557, i32 0, i32 0} ; [ DW_TAG_subroutine_type ]
!557 = metadata !{null, metadata !536, metadata !145}
!558 = metadata !{i32 786478, i32 0, metadata !522, metadata !"ap_int_base", metadata !"ap_int_base", metadata !"", metadata !79, i32 1467, metadata !559, i1 false, i1 false, i32 0, i32 0, null, i32 384, i1 false, null, null, i32 0, metadata !91, i32 1467} ; [ DW_TAG_subprogram ]
!559 = metadata !{i32 786453, i32 0, metadata !"", i32 0, i32 0, i64 0, i64 0, i64 0, i32 0, null, metadata !560, i32 0, i32 0} ; [ DW_TAG_subroutine_type ]
!560 = metadata !{null, metadata !536, metadata !149}
!561 = metadata !{i32 786478, i32 0, metadata !522, metadata !"ap_int_base", metadata !"ap_int_base", metadata !"", metadata !79, i32 1468, metadata !562, i1 false, i1 false, i32 0, i32 0, null, i32 384, i1 false, null, null, i32 0, metadata !91, i32 1468} ; [ DW_TAG_subprogram ]
!562 = metadata !{i32 786453, i32 0, metadata !"", i32 0, i32 0, i64 0, i64 0, i64 0, i32 0, null, metadata !563, i32 0, i32 0} ; [ DW_TAG_subroutine_type ]
!563 = metadata !{null, metadata !536, metadata !153}
!564 = metadata !{i32 786478, i32 0, metadata !522, metadata !"ap_int_base", metadata !"ap_int_base", metadata !"", metadata !79, i32 1469, metadata !565, i1 false, i1 false, i32 0, i32 0, null, i32 384, i1 false, null, null, i32 0, metadata !91, i32 1469} ; [ DW_TAG_subprogram ]
!565 = metadata !{i32 786453, i32 0, metadata !"", i32 0, i32 0, i64 0, i64 0, i64 0, i32 0, null, metadata !566, i32 0, i32 0} ; [ DW_TAG_subroutine_type ]
!566 = metadata !{null, metadata !536, metadata !157}
!567 = metadata !{i32 786478, i32 0, metadata !522, metadata !"ap_int_base", metadata !"ap_int_base", metadata !"", metadata !79, i32 1470, metadata !568, i1 false, i1 false, i32 0, i32 0, null, i32 384, i1 false, null, null, i32 0, metadata !91, i32 1470} ; [ DW_TAG_subprogram ]
!568 = metadata !{i32 786453, i32 0, metadata !"", i32 0, i32 0, i64 0, i64 0, i64 0, i32 0, null, metadata !569, i32 0, i32 0} ; [ DW_TAG_subroutine_type ]
!569 = metadata !{null, metadata !536, metadata !162}
!570 = metadata !{i32 786478, i32 0, metadata !522, metadata !"ap_int_base", metadata !"ap_int_base", metadata !"", metadata !79, i32 1471, metadata !571, i1 false, i1 false, i32 0, i32 0, null, i32 384, i1 false, null, null, i32 0, metadata !91, i32 1471} ; [ DW_TAG_subprogram ]
!571 = metadata !{i32 786453, i32 0, metadata !"", i32 0, i32 0, i64 0, i64 0, i64 0, i32 0, null, metadata !572, i32 0, i32 0} ; [ DW_TAG_subroutine_type ]
!572 = metadata !{null, metadata !536, metadata !167}
!573 = metadata !{i32 786478, i32 0, metadata !522, metadata !"ap_int_base", metadata !"ap_int_base", metadata !"", metadata !79, i32 1472, metadata !574, i1 false, i1 false, i32 0, i32 0, null, i32 384, i1 false, null, null, i32 0, metadata !91, i32 1472} ; [ DW_TAG_subprogram ]
!574 = metadata !{i32 786453, i32 0, metadata !"", i32 0, i32 0, i64 0, i64 0, i64 0, i32 0, null, metadata !575, i32 0, i32 0} ; [ DW_TAG_subroutine_type ]
!575 = metadata !{null, metadata !536, metadata !171}
!576 = metadata !{i32 786478, i32 0, metadata !522, metadata !"ap_int_base", metadata !"ap_int_base", metadata !"", metadata !79, i32 1499, metadata !577, i1 false, i1 false, i32 0, i32 0, null, i32 256, i1 false, null, null, i32 0, metadata !91, i32 1499} ; [ DW_TAG_subprogram ]
!577 = metadata !{i32 786453, i32 0, metadata !"", i32 0, i32 0, i64 0, i64 0, i64 0, i32 0, null, metadata !578, i32 0, i32 0} ; [ DW_TAG_subroutine_type ]
!578 = metadata !{null, metadata !536, metadata !175}
!579 = metadata !{i32 786478, i32 0, metadata !522, metadata !"ap_int_base", metadata !"ap_int_base", metadata !"", metadata !79, i32 1506, metadata !580, i1 false, i1 false, i32 0, i32 0, null, i32 256, i1 false, null, null, i32 0, metadata !91, i32 1506} ; [ DW_TAG_subprogram ]
!580 = metadata !{i32 786453, i32 0, metadata !"", i32 0, i32 0, i64 0, i64 0, i64 0, i32 0, null, metadata !581, i32 0, i32 0} ; [ DW_TAG_subroutine_type ]
!581 = metadata !{null, metadata !536, metadata !175, metadata !126}
!582 = metadata !{i32 786478, i32 0, metadata !522, metadata !"read", metadata !"read", metadata !"_ZNV11ap_int_baseILi8ELb0ELb1EE4readEv", metadata !79, i32 1527, metadata !583, i1 false, i1 false, i32 0, i32 0, null, i32 256, i1 false, null, null, i32 0, metadata !91, i32 1527} ; [ DW_TAG_subprogram ]
!583 = metadata !{i32 786453, i32 0, metadata !"", i32 0, i32 0, i64 0, i64 0, i64 0, i32 0, null, metadata !584, i32 0, i32 0} ; [ DW_TAG_subroutine_type ]
!584 = metadata !{metadata !522, metadata !585}
!585 = metadata !{i32 786447, i32 0, metadata !"", i32 0, i32 0, i64 64, i64 64, i64 0, i32 64, metadata !586} ; [ DW_TAG_pointer_type ]
!586 = metadata !{i32 786485, null, metadata !"", null, i32 0, i64 0, i64 0, i64 0, i32 0, metadata !522} ; [ DW_TAG_volatile_type ]
!587 = metadata !{i32 786478, i32 0, metadata !522, metadata !"write", metadata !"write", metadata !"_ZNV11ap_int_baseILi8ELb0ELb1EE5writeERKS0_", metadata !79, i32 1533, metadata !588, i1 false, i1 false, i32 0, i32 0, null, i32 256, i1 false, null, null, i32 0, metadata !91, i32 1533} ; [ DW_TAG_subprogram ]
!588 = metadata !{i32 786453, i32 0, metadata !"", i32 0, i32 0, i64 0, i64 0, i64 0, i32 0, null, metadata !589, i32 0, i32 0} ; [ DW_TAG_subroutine_type ]
!589 = metadata !{null, metadata !585, metadata !590}
!590 = metadata !{i32 786448, null, null, null, i32 0, i64 0, i64 0, i64 0, i32 0, metadata !591} ; [ DW_TAG_reference_type ]
!591 = metadata !{i32 786470, null, metadata !"", null, i32 0, i64 0, i64 0, i64 0, i32 0, metadata !522} ; [ DW_TAG_const_type ]
!592 = metadata !{i32 786478, i32 0, metadata !522, metadata !"operator=", metadata !"operator=", metadata !"_ZNV11ap_int_baseILi8ELb0ELb1EEaSERVKS0_", metadata !79, i32 1545, metadata !593, i1 false, i1 false, i32 0, i32 0, null, i32 256, i1 false, null, null, i32 0, metadata !91, i32 1545} ; [ DW_TAG_subprogram ]
!593 = metadata !{i32 786453, i32 0, metadata !"", i32 0, i32 0, i64 0, i64 0, i64 0, i32 0, null, metadata !594, i32 0, i32 0} ; [ DW_TAG_subroutine_type ]
!594 = metadata !{null, metadata !585, metadata !595}
!595 = metadata !{i32 786448, null, null, null, i32 0, i64 0, i64 0, i64 0, i32 0, metadata !596} ; [ DW_TAG_reference_type ]
!596 = metadata !{i32 786470, null, metadata !"", null, i32 0, i64 0, i64 0, i64 0, i32 0, metadata !586} ; [ DW_TAG_const_type ]
!597 = metadata !{i32 786478, i32 0, metadata !522, metadata !"operator=", metadata !"operator=", metadata !"_ZNV11ap_int_baseILi8ELb0ELb1EEaSERKS0_", metadata !79, i32 1554, metadata !588, i1 false, i1 false, i32 0, i32 0, null, i32 256, i1 false, null, null, i32 0, metadata !91, i32 1554} ; [ DW_TAG_subprogram ]
!598 = metadata !{i32 786478, i32 0, metadata !522, metadata !"operator=", metadata !"operator=", metadata !"_ZN11ap_int_baseILi8ELb0ELb1EEaSERVKS0_", metadata !79, i32 1577, metadata !599, i1 false, i1 false, i32 0, i32 0, null, i32 256, i1 false, null, null, i32 0, metadata !91, i32 1577} ; [ DW_TAG_subprogram ]
!599 = metadata !{i32 786453, i32 0, metadata !"", i32 0, i32 0, i64 0, i64 0, i64 0, i32 0, null, metadata !600, i32 0, i32 0} ; [ DW_TAG_subroutine_type ]
!600 = metadata !{metadata !601, metadata !536, metadata !595}
!601 = metadata !{i32 786448, null, null, null, i32 0, i64 0, i64 0, i64 0, i32 0, metadata !522} ; [ DW_TAG_reference_type ]
!602 = metadata !{i32 786478, i32 0, metadata !522, metadata !"operator=", metadata !"operator=", metadata !"_ZN11ap_int_baseILi8ELb0ELb1EEaSERKS0_", metadata !79, i32 1582, metadata !603, i1 false, i1 false, i32 0, i32 0, null, i32 256, i1 false, null, null, i32 0, metadata !91, i32 1582} ; [ DW_TAG_subprogram ]
!603 = metadata !{i32 786453, i32 0, metadata !"", i32 0, i32 0, i64 0, i64 0, i64 0, i32 0, null, metadata !604, i32 0, i32 0} ; [ DW_TAG_subroutine_type ]
!604 = metadata !{metadata !601, metadata !536, metadata !590}
!605 = metadata !{i32 786478, i32 0, metadata !522, metadata !"operator=", metadata !"operator=", metadata !"_ZN11ap_int_baseILi8ELb0ELb1EEaSEPKc", metadata !79, i32 1586, metadata !606, i1 false, i1 false, i32 0, i32 0, null, i32 256, i1 false, null, null, i32 0, metadata !91, i32 1586} ; [ DW_TAG_subprogram ]
!606 = metadata !{i32 786453, i32 0, metadata !"", i32 0, i32 0, i64 0, i64 0, i64 0, i32 0, null, metadata !607, i32 0, i32 0} ; [ DW_TAG_subroutine_type ]
!607 = metadata !{metadata !601, metadata !536, metadata !175}
!608 = metadata !{i32 786478, i32 0, metadata !522, metadata !"set", metadata !"set", metadata !"_ZN11ap_int_baseILi8ELb0ELb1EE3setEPKca", metadata !79, i32 1594, metadata !609, i1 false, i1 false, i32 0, i32 0, null, i32 256, i1 false, null, null, i32 0, metadata !91, i32 1594} ; [ DW_TAG_subprogram ]
!609 = metadata !{i32 786453, i32 0, metadata !"", i32 0, i32 0, i64 0, i64 0, i64 0, i32 0, null, metadata !610, i32 0, i32 0} ; [ DW_TAG_subroutine_type ]
!610 = metadata !{metadata !601, metadata !536, metadata !175, metadata !126}
!611 = metadata !{i32 786478, i32 0, metadata !522, metadata !"operator=", metadata !"operator=", metadata !"_ZN11ap_int_baseILi8ELb0ELb1EEaSEa", metadata !79, i32 1608, metadata !612, i1 false, i1 false, i32 0, i32 0, null, i32 256, i1 false, null, null, i32 0, metadata !91, i32 1608} ; [ DW_TAG_subprogram ]
!612 = metadata !{i32 786453, i32 0, metadata !"", i32 0, i32 0, i64 0, i64 0, i64 0, i32 0, null, metadata !613, i32 0, i32 0} ; [ DW_TAG_subroutine_type ]
!613 = metadata !{metadata !601, metadata !536, metadata !126}
!614 = metadata !{i32 786478, i32 0, metadata !522, metadata !"operator=", metadata !"operator=", metadata !"_ZN11ap_int_baseILi8ELb0ELb1EEaSEh", metadata !79, i32 1609, metadata !615, i1 false, i1 false, i32 0, i32 0, null, i32 256, i1 false, null, null, i32 0, metadata !91, i32 1609} ; [ DW_TAG_subprogram ]
!615 = metadata !{i32 786453, i32 0, metadata !"", i32 0, i32 0, i64 0, i64 0, i64 0, i32 0, null, metadata !616, i32 0, i32 0} ; [ DW_TAG_subroutine_type ]
!616 = metadata !{metadata !601, metadata !536, metadata !130}
!617 = metadata !{i32 786478, i32 0, metadata !522, metadata !"operator=", metadata !"operator=", metadata !"_ZN11ap_int_baseILi8ELb0ELb1EEaSEs", metadata !79, i32 1610, metadata !618, i1 false, i1 false, i32 0, i32 0, null, i32 256, i1 false, null, null, i32 0, metadata !91, i32 1610} ; [ DW_TAG_subprogram ]
!618 = metadata !{i32 786453, i32 0, metadata !"", i32 0, i32 0, i64 0, i64 0, i64 0, i32 0, null, metadata !619, i32 0, i32 0} ; [ DW_TAG_subroutine_type ]
!619 = metadata !{metadata !601, metadata !536, metadata !134}
!620 = metadata !{i32 786478, i32 0, metadata !522, metadata !"operator=", metadata !"operator=", metadata !"_ZN11ap_int_baseILi8ELb0ELb1EEaSEt", metadata !79, i32 1611, metadata !621, i1 false, i1 false, i32 0, i32 0, null, i32 256, i1 false, null, null, i32 0, metadata !91, i32 1611} ; [ DW_TAG_subprogram ]
!621 = metadata !{i32 786453, i32 0, metadata !"", i32 0, i32 0, i64 0, i64 0, i64 0, i32 0, null, metadata !622, i32 0, i32 0} ; [ DW_TAG_subroutine_type ]
!622 = metadata !{metadata !601, metadata !536, metadata !138}
!623 = metadata !{i32 786478, i32 0, metadata !522, metadata !"operator=", metadata !"operator=", metadata !"_ZN11ap_int_baseILi8ELb0ELb1EEaSEi", metadata !79, i32 1612, metadata !624, i1 false, i1 false, i32 0, i32 0, null, i32 256, i1 false, null, null, i32 0, metadata !91, i32 1612} ; [ DW_TAG_subprogram ]
!624 = metadata !{i32 786453, i32 0, metadata !"", i32 0, i32 0, i64 0, i64 0, i64 0, i32 0, null, metadata !625, i32 0, i32 0} ; [ DW_TAG_subroutine_type ]
!625 = metadata !{metadata !601, metadata !536, metadata !71}
!626 = metadata !{i32 786478, i32 0, metadata !522, metadata !"operator=", metadata !"operator=", metadata !"_ZN11ap_int_baseILi8ELb0ELb1EEaSEj", metadata !79, i32 1613, metadata !627, i1 false, i1 false, i32 0, i32 0, null, i32 256, i1 false, null, null, i32 0, metadata !91, i32 1613} ; [ DW_TAG_subprogram ]
!627 = metadata !{i32 786453, i32 0, metadata !"", i32 0, i32 0, i64 0, i64 0, i64 0, i32 0, null, metadata !628, i32 0, i32 0} ; [ DW_TAG_subroutine_type ]
!628 = metadata !{metadata !601, metadata !536, metadata !145}
!629 = metadata !{i32 786478, i32 0, metadata !522, metadata !"operator=", metadata !"operator=", metadata !"_ZN11ap_int_baseILi8ELb0ELb1EEaSEx", metadata !79, i32 1614, metadata !630, i1 false, i1 false, i32 0, i32 0, null, i32 256, i1 false, null, null, i32 0, metadata !91, i32 1614} ; [ DW_TAG_subprogram ]
!630 = metadata !{i32 786453, i32 0, metadata !"", i32 0, i32 0, i64 0, i64 0, i64 0, i32 0, null, metadata !631, i32 0, i32 0} ; [ DW_TAG_subroutine_type ]
!631 = metadata !{metadata !601, metadata !536, metadata !157}
!632 = metadata !{i32 786478, i32 0, metadata !522, metadata !"operator=", metadata !"operator=", metadata !"_ZN11ap_int_baseILi8ELb0ELb1EEaSEy", metadata !79, i32 1615, metadata !633, i1 false, i1 false, i32 0, i32 0, null, i32 256, i1 false, null, null, i32 0, metadata !91, i32 1615} ; [ DW_TAG_subprogram ]
!633 = metadata !{i32 786453, i32 0, metadata !"", i32 0, i32 0, i64 0, i64 0, i64 0, i32 0, null, metadata !634, i32 0, i32 0} ; [ DW_TAG_subroutine_type ]
!634 = metadata !{metadata !601, metadata !536, metadata !162}
!635 = metadata !{i32 786478, i32 0, metadata !522, metadata !"operator unsigned char", metadata !"operator unsigned char", metadata !"_ZNK11ap_int_baseILi8ELb0ELb1EEcvhEv", metadata !79, i32 1653, metadata !636, i1 false, i1 false, i32 0, i32 0, null, i32 256, i1 false, null, null, i32 0, metadata !91, i32 1653} ; [ DW_TAG_subprogram ]
!636 = metadata !{i32 786453, i32 0, metadata !"", i32 0, i32 0, i64 0, i64 0, i64 0, i32 0, null, metadata !637, i32 0, i32 0} ; [ DW_TAG_subroutine_type ]
!637 = metadata !{metadata !638, metadata !643}
!638 = metadata !{i32 786454, metadata !522, metadata !"RetType", metadata !79, i32 1402, i64 0, i64 0, i64 0, i32 0, metadata !639} ; [ DW_TAG_typedef ]
!639 = metadata !{i32 786454, metadata !640, metadata !"Type", metadata !79, i32 1370, i64 0, i64 0, i64 0, i32 0, metadata !130} ; [ DW_TAG_typedef ]
!640 = metadata !{i32 786434, null, metadata !"retval<1, false>", metadata !79, i32 1369, i64 8, i64 8, i32 0, i32 0, null, metadata !235, i32 0, null, metadata !641} ; [ DW_TAG_class_type ]
!641 = metadata !{metadata !642, metadata !100}
!642 = metadata !{i32 786480, null, metadata !"_AP_N", metadata !71, i64 1, null, i32 0, i32 0} ; [ DW_TAG_template_value_parameter ]
!643 = metadata !{i32 786447, i32 0, metadata !"", i32 0, i32 0, i64 64, i64 64, i64 0, i32 64, metadata !591} ; [ DW_TAG_pointer_type ]
!644 = metadata !{i32 786478, i32 0, metadata !522, metadata !"to_bool", metadata !"to_bool", metadata !"_ZNK11ap_int_baseILi8ELb0ELb1EE7to_boolEv", metadata !79, i32 1659, metadata !645, i1 false, i1 false, i32 0, i32 0, null, i32 256, i1 false, null, null, i32 0, metadata !91, i32 1659} ; [ DW_TAG_subprogram ]
!645 = metadata !{i32 786453, i32 0, metadata !"", i32 0, i32 0, i64 0, i64 0, i64 0, i32 0, null, metadata !646, i32 0, i32 0} ; [ DW_TAG_subroutine_type ]
!646 = metadata !{metadata !101, metadata !643}
!647 = metadata !{i32 786478, i32 0, metadata !522, metadata !"to_uchar", metadata !"to_uchar", metadata !"_ZNK11ap_int_baseILi8ELb0ELb1EE8to_ucharEv", metadata !79, i32 1660, metadata !648, i1 false, i1 false, i32 0, i32 0, null, i32 256, i1 false, null, null, i32 0, metadata !91, i32 1660} ; [ DW_TAG_subprogram ]
!648 = metadata !{i32 786453, i32 0, metadata !"", i32 0, i32 0, i64 0, i64 0, i64 0, i32 0, null, metadata !649, i32 0, i32 0} ; [ DW_TAG_subroutine_type ]
!649 = metadata !{metadata !130, metadata !643}
!650 = metadata !{i32 786478, i32 0, metadata !522, metadata !"to_char", metadata !"to_char", metadata !"_ZNK11ap_int_baseILi8ELb0ELb1EE7to_charEv", metadata !79, i32 1661, metadata !651, i1 false, i1 false, i32 0, i32 0, null, i32 256, i1 false, null, null, i32 0, metadata !91, i32 1661} ; [ DW_TAG_subprogram ]
!651 = metadata !{i32 786453, i32 0, metadata !"", i32 0, i32 0, i64 0, i64 0, i64 0, i32 0, null, metadata !652, i32 0, i32 0} ; [ DW_TAG_subroutine_type ]
!652 = metadata !{metadata !126, metadata !643}
!653 = metadata !{i32 786478, i32 0, metadata !522, metadata !"to_ushort", metadata !"to_ushort", metadata !"_ZNK11ap_int_baseILi8ELb0ELb1EE9to_ushortEv", metadata !79, i32 1662, metadata !654, i1 false, i1 false, i32 0, i32 0, null, i32 256, i1 false, null, null, i32 0, metadata !91, i32 1662} ; [ DW_TAG_subprogram ]
!654 = metadata !{i32 786453, i32 0, metadata !"", i32 0, i32 0, i64 0, i64 0, i64 0, i32 0, null, metadata !655, i32 0, i32 0} ; [ DW_TAG_subroutine_type ]
!655 = metadata !{metadata !138, metadata !643}
!656 = metadata !{i32 786478, i32 0, metadata !522, metadata !"to_short", metadata !"to_short", metadata !"_ZNK11ap_int_baseILi8ELb0ELb1EE8to_shortEv", metadata !79, i32 1663, metadata !657, i1 false, i1 false, i32 0, i32 0, null, i32 256, i1 false, null, null, i32 0, metadata !91, i32 1663} ; [ DW_TAG_subprogram ]
!657 = metadata !{i32 786453, i32 0, metadata !"", i32 0, i32 0, i64 0, i64 0, i64 0, i32 0, null, metadata !658, i32 0, i32 0} ; [ DW_TAG_subroutine_type ]
!658 = metadata !{metadata !134, metadata !643}
!659 = metadata !{i32 786478, i32 0, metadata !522, metadata !"to_int", metadata !"to_int", metadata !"_ZNK11ap_int_baseILi8ELb0ELb1EE6to_intEv", metadata !79, i32 1664, metadata !660, i1 false, i1 false, i32 0, i32 0, null, i32 256, i1 false, null, null, i32 0, metadata !91, i32 1664} ; [ DW_TAG_subprogram ]
!660 = metadata !{i32 786453, i32 0, metadata !"", i32 0, i32 0, i64 0, i64 0, i64 0, i32 0, null, metadata !661, i32 0, i32 0} ; [ DW_TAG_subroutine_type ]
!661 = metadata !{metadata !71, metadata !643}
!662 = metadata !{i32 786478, i32 0, metadata !522, metadata !"to_uint", metadata !"to_uint", metadata !"_ZNK11ap_int_baseILi8ELb0ELb1EE7to_uintEv", metadata !79, i32 1665, metadata !663, i1 false, i1 false, i32 0, i32 0, null, i32 256, i1 false, null, null, i32 0, metadata !91, i32 1665} ; [ DW_TAG_subprogram ]
!663 = metadata !{i32 786453, i32 0, metadata !"", i32 0, i32 0, i64 0, i64 0, i64 0, i32 0, null, metadata !664, i32 0, i32 0} ; [ DW_TAG_subroutine_type ]
!664 = metadata !{metadata !145, metadata !643}
!665 = metadata !{i32 786478, i32 0, metadata !522, metadata !"to_long", metadata !"to_long", metadata !"_ZNK11ap_int_baseILi8ELb0ELb1EE7to_longEv", metadata !79, i32 1666, metadata !666, i1 false, i1 false, i32 0, i32 0, null, i32 256, i1 false, null, null, i32 0, metadata !91, i32 1666} ; [ DW_TAG_subprogram ]
!666 = metadata !{i32 786453, i32 0, metadata !"", i32 0, i32 0, i64 0, i64 0, i64 0, i32 0, null, metadata !667, i32 0, i32 0} ; [ DW_TAG_subroutine_type ]
!667 = metadata !{metadata !149, metadata !643}
!668 = metadata !{i32 786478, i32 0, metadata !522, metadata !"to_ulong", metadata !"to_ulong", metadata !"_ZNK11ap_int_baseILi8ELb0ELb1EE8to_ulongEv", metadata !79, i32 1667, metadata !669, i1 false, i1 false, i32 0, i32 0, null, i32 256, i1 false, null, null, i32 0, metadata !91, i32 1667} ; [ DW_TAG_subprogram ]
!669 = metadata !{i32 786453, i32 0, metadata !"", i32 0, i32 0, i64 0, i64 0, i64 0, i32 0, null, metadata !670, i32 0, i32 0} ; [ DW_TAG_subroutine_type ]
!670 = metadata !{metadata !153, metadata !643}
!671 = metadata !{i32 786478, i32 0, metadata !522, metadata !"to_int64", metadata !"to_int64", metadata !"_ZNK11ap_int_baseILi8ELb0ELb1EE8to_int64Ev", metadata !79, i32 1668, metadata !672, i1 false, i1 false, i32 0, i32 0, null, i32 256, i1 false, null, null, i32 0, metadata !91, i32 1668} ; [ DW_TAG_subprogram ]
!672 = metadata !{i32 786453, i32 0, metadata !"", i32 0, i32 0, i64 0, i64 0, i64 0, i32 0, null, metadata !673, i32 0, i32 0} ; [ DW_TAG_subroutine_type ]
!673 = metadata !{metadata !157, metadata !643}
!674 = metadata !{i32 786478, i32 0, metadata !522, metadata !"to_uint64", metadata !"to_uint64", metadata !"_ZNK11ap_int_baseILi8ELb0ELb1EE9to_uint64Ev", metadata !79, i32 1669, metadata !675, i1 false, i1 false, i32 0, i32 0, null, i32 256, i1 false, null, null, i32 0, metadata !91, i32 1669} ; [ DW_TAG_subprogram ]
!675 = metadata !{i32 786453, i32 0, metadata !"", i32 0, i32 0, i64 0, i64 0, i64 0, i32 0, null, metadata !676, i32 0, i32 0} ; [ DW_TAG_subroutine_type ]
!676 = metadata !{metadata !162, metadata !643}
!677 = metadata !{i32 786478, i32 0, metadata !522, metadata !"to_double", metadata !"to_double", metadata !"_ZNK11ap_int_baseILi8ELb0ELb1EE9to_doubleEv", metadata !79, i32 1670, metadata !678, i1 false, i1 false, i32 0, i32 0, null, i32 256, i1 false, null, null, i32 0, metadata !91, i32 1670} ; [ DW_TAG_subprogram ]
!678 = metadata !{i32 786453, i32 0, metadata !"", i32 0, i32 0, i64 0, i64 0, i64 0, i32 0, null, metadata !679, i32 0, i32 0} ; [ DW_TAG_subroutine_type ]
!679 = metadata !{metadata !171, metadata !643}
!680 = metadata !{i32 786478, i32 0, metadata !522, metadata !"length", metadata !"length", metadata !"_ZNK11ap_int_baseILi8ELb0ELb1EE6lengthEv", metadata !79, i32 1684, metadata !660, i1 false, i1 false, i32 0, i32 0, null, i32 256, i1 false, null, null, i32 0, metadata !91, i32 1684} ; [ DW_TAG_subprogram ]
!681 = metadata !{i32 786478, i32 0, metadata !522, metadata !"length", metadata !"length", metadata !"_ZNVK11ap_int_baseILi8ELb0ELb1EE6lengthEv", metadata !79, i32 1685, metadata !682, i1 false, i1 false, i32 0, i32 0, null, i32 256, i1 false, null, null, i32 0, metadata !91, i32 1685} ; [ DW_TAG_subprogram ]
!682 = metadata !{i32 786453, i32 0, metadata !"", i32 0, i32 0, i64 0, i64 0, i64 0, i32 0, null, metadata !683, i32 0, i32 0} ; [ DW_TAG_subroutine_type ]
!683 = metadata !{metadata !71, metadata !684}
!684 = metadata !{i32 786447, i32 0, metadata !"", i32 0, i32 0, i64 64, i64 64, i64 0, i32 64, metadata !596} ; [ DW_TAG_pointer_type ]
!685 = metadata !{i32 786478, i32 0, metadata !522, metadata !"reverse", metadata !"reverse", metadata !"_ZN11ap_int_baseILi8ELb0ELb1EE7reverseEv", metadata !79, i32 1690, metadata !686, i1 false, i1 false, i32 0, i32 0, null, i32 256, i1 false, null, null, i32 0, metadata !91, i32 1690} ; [ DW_TAG_subprogram ]
!686 = metadata !{i32 786453, i32 0, metadata !"", i32 0, i32 0, i64 0, i64 0, i64 0, i32 0, null, metadata !687, i32 0, i32 0} ; [ DW_TAG_subroutine_type ]
!687 = metadata !{metadata !601, metadata !536}
!688 = metadata !{i32 786478, i32 0, metadata !522, metadata !"iszero", metadata !"iszero", metadata !"_ZNK11ap_int_baseILi8ELb0ELb1EE6iszeroEv", metadata !79, i32 1696, metadata !645, i1 false, i1 false, i32 0, i32 0, null, i32 256, i1 false, null, null, i32 0, metadata !91, i32 1696} ; [ DW_TAG_subprogram ]
!689 = metadata !{i32 786478, i32 0, metadata !522, metadata !"is_zero", metadata !"is_zero", metadata !"_ZNK11ap_int_baseILi8ELb0ELb1EE7is_zeroEv", metadata !79, i32 1701, metadata !645, i1 false, i1 false, i32 0, i32 0, null, i32 256, i1 false, null, null, i32 0, metadata !91, i32 1701} ; [ DW_TAG_subprogram ]
!690 = metadata !{i32 786478, i32 0, metadata !522, metadata !"sign", metadata !"sign", metadata !"_ZNK11ap_int_baseILi8ELb0ELb1EE4signEv", metadata !79, i32 1706, metadata !645, i1 false, i1 false, i32 0, i32 0, null, i32 256, i1 false, null, null, i32 0, metadata !91, i32 1706} ; [ DW_TAG_subprogram ]
!691 = metadata !{i32 786478, i32 0, metadata !522, metadata !"clear", metadata !"clear", metadata !"_ZN11ap_int_baseILi8ELb0ELb1EE5clearEi", metadata !79, i32 1714, metadata !553, i1 false, i1 false, i32 0, i32 0, null, i32 256, i1 false, null, null, i32 0, metadata !91, i32 1714} ; [ DW_TAG_subprogram ]
!692 = metadata !{i32 786478, i32 0, metadata !522, metadata !"invert", metadata !"invert", metadata !"_ZN11ap_int_baseILi8ELb0ELb1EE6invertEi", metadata !79, i32 1720, metadata !553, i1 false, i1 false, i32 0, i32 0, null, i32 256, i1 false, null, null, i32 0, metadata !91, i32 1720} ; [ DW_TAG_subprogram ]
!693 = metadata !{i32 786478, i32 0, metadata !522, metadata !"test", metadata !"test", metadata !"_ZNK11ap_int_baseILi8ELb0ELb1EE4testEi", metadata !79, i32 1728, metadata !694, i1 false, i1 false, i32 0, i32 0, null, i32 256, i1 false, null, null, i32 0, metadata !91, i32 1728} ; [ DW_TAG_subprogram ]
!694 = metadata !{i32 786453, i32 0, metadata !"", i32 0, i32 0, i64 0, i64 0, i64 0, i32 0, null, metadata !695, i32 0, i32 0} ; [ DW_TAG_subroutine_type ]
!695 = metadata !{metadata !101, metadata !643, metadata !71}
!696 = metadata !{i32 786478, i32 0, metadata !522, metadata !"set", metadata !"set", metadata !"_ZN11ap_int_baseILi8ELb0ELb1EE3setEi", metadata !79, i32 1734, metadata !553, i1 false, i1 false, i32 0, i32 0, null, i32 256, i1 false, null, null, i32 0, metadata !91, i32 1734} ; [ DW_TAG_subprogram ]
!697 = metadata !{i32 786478, i32 0, metadata !522, metadata !"set", metadata !"set", metadata !"_ZN11ap_int_baseILi8ELb0ELb1EE3setEib", metadata !79, i32 1740, metadata !698, i1 false, i1 false, i32 0, i32 0, null, i32 256, i1 false, null, null, i32 0, metadata !91, i32 1740} ; [ DW_TAG_subprogram ]
!698 = metadata !{i32 786453, i32 0, metadata !"", i32 0, i32 0, i64 0, i64 0, i64 0, i32 0, null, metadata !699, i32 0, i32 0} ; [ DW_TAG_subroutine_type ]
!699 = metadata !{null, metadata !536, metadata !71, metadata !101}
!700 = metadata !{i32 786478, i32 0, metadata !522, metadata !"lrotate", metadata !"lrotate", metadata !"_ZN11ap_int_baseILi8ELb0ELb1EE7lrotateEi", metadata !79, i32 1747, metadata !553, i1 false, i1 false, i32 0, i32 0, null, i32 256, i1 false, null, null, i32 0, metadata !91, i32 1747} ; [ DW_TAG_subprogram ]
!701 = metadata !{i32 786478, i32 0, metadata !522, metadata !"rrotate", metadata !"rrotate", metadata !"_ZN11ap_int_baseILi8ELb0ELb1EE7rrotateEi", metadata !79, i32 1756, metadata !553, i1 false, i1 false, i32 0, i32 0, null, i32 256, i1 false, null, null, i32 0, metadata !91, i32 1756} ; [ DW_TAG_subprogram ]
!702 = metadata !{i32 786478, i32 0, metadata !522, metadata !"set_bit", metadata !"set_bit", metadata !"_ZN11ap_int_baseILi8ELb0ELb1EE7set_bitEib", metadata !79, i32 1764, metadata !698, i1 false, i1 false, i32 0, i32 0, null, i32 256, i1 false, null, null, i32 0, metadata !91, i32 1764} ; [ DW_TAG_subprogram ]
!703 = metadata !{i32 786478, i32 0, metadata !522, metadata !"get_bit", metadata !"get_bit", metadata !"_ZNK11ap_int_baseILi8ELb0ELb1EE7get_bitEi", metadata !79, i32 1769, metadata !694, i1 false, i1 false, i32 0, i32 0, null, i32 256, i1 false, null, null, i32 0, metadata !91, i32 1769} ; [ DW_TAG_subprogram ]
!704 = metadata !{i32 786478, i32 0, metadata !522, metadata !"b_not", metadata !"b_not", metadata !"_ZN11ap_int_baseILi8ELb0ELb1EE5b_notEv", metadata !79, i32 1774, metadata !534, i1 false, i1 false, i32 0, i32 0, null, i32 256, i1 false, null, null, i32 0, metadata !91, i32 1774} ; [ DW_TAG_subprogram ]
!705 = metadata !{i32 786478, i32 0, metadata !522, metadata !"countLeadingZeros", metadata !"countLeadingZeros", metadata !"_ZN11ap_int_baseILi8ELb0ELb1EE17countLeadingZerosEv", metadata !79, i32 1781, metadata !706, i1 false, i1 false, i32 0, i32 0, null, i32 256, i1 false, null, null, i32 0, metadata !91, i32 1781} ; [ DW_TAG_subprogram ]
!706 = metadata !{i32 786453, i32 0, metadata !"", i32 0, i32 0, i64 0, i64 0, i64 0, i32 0, null, metadata !707, i32 0, i32 0} ; [ DW_TAG_subroutine_type ]
!707 = metadata !{metadata !71, metadata !536}
!708 = metadata !{i32 786478, i32 0, metadata !522, metadata !"operator++", metadata !"operator++", metadata !"_ZN11ap_int_baseILi8ELb0ELb1EEppEv", metadata !79, i32 1838, metadata !686, i1 false, i1 false, i32 0, i32 0, null, i32 256, i1 false, null, null, i32 0, metadata !91, i32 1838} ; [ DW_TAG_subprogram ]
!709 = metadata !{i32 786478, i32 0, metadata !522, metadata !"operator--", metadata !"operator--", metadata !"_ZN11ap_int_baseILi8ELb0ELb1EEmmEv", metadata !79, i32 1842, metadata !686, i1 false, i1 false, i32 0, i32 0, null, i32 256, i1 false, null, null, i32 0, metadata !91, i32 1842} ; [ DW_TAG_subprogram ]
!710 = metadata !{i32 786478, i32 0, metadata !522, metadata !"operator++", metadata !"operator++", metadata !"_ZN11ap_int_baseILi8ELb0ELb1EEppEi", metadata !79, i32 1850, metadata !711, i1 false, i1 false, i32 0, i32 0, null, i32 256, i1 false, null, null, i32 0, metadata !91, i32 1850} ; [ DW_TAG_subprogram ]
!711 = metadata !{i32 786453, i32 0, metadata !"", i32 0, i32 0, i64 0, i64 0, i64 0, i32 0, null, metadata !712, i32 0, i32 0} ; [ DW_TAG_subroutine_type ]
!712 = metadata !{metadata !591, metadata !536, metadata !71}
!713 = metadata !{i32 786478, i32 0, metadata !522, metadata !"operator--", metadata !"operator--", metadata !"_ZN11ap_int_baseILi8ELb0ELb1EEmmEi", metadata !79, i32 1855, metadata !711, i1 false, i1 false, i32 0, i32 0, null, i32 256, i1 false, null, null, i32 0, metadata !91, i32 1855} ; [ DW_TAG_subprogram ]
!714 = metadata !{i32 786478, i32 0, metadata !522, metadata !"operator+", metadata !"operator+", metadata !"_ZNK11ap_int_baseILi8ELb0ELb1EEpsEv", metadata !79, i32 1864, metadata !715, i1 false, i1 false, i32 0, i32 0, null, i32 256, i1 false, null, null, i32 0, metadata !91, i32 1864} ; [ DW_TAG_subprogram ]
!715 = metadata !{i32 786453, i32 0, metadata !"", i32 0, i32 0, i64 0, i64 0, i64 0, i32 0, null, metadata !716, i32 0, i32 0} ; [ DW_TAG_subroutine_type ]
!716 = metadata !{metadata !522, metadata !643}
!717 = metadata !{i32 786478, i32 0, metadata !522, metadata !"operator!", metadata !"operator!", metadata !"_ZNK11ap_int_baseILi8ELb0ELb1EEntEv", metadata !79, i32 1870, metadata !645, i1 false, i1 false, i32 0, i32 0, null, i32 256, i1 false, null, null, i32 0, metadata !91, i32 1870} ; [ DW_TAG_subprogram ]
!718 = metadata !{i32 786478, i32 0, metadata !522, metadata !"operator-", metadata !"operator-", metadata !"_ZNK11ap_int_baseILi8ELb0ELb1EEngEv", metadata !79, i32 1875, metadata !719, i1 false, i1 false, i32 0, i32 0, null, i32 256, i1 false, null, null, i32 0, metadata !91, i32 1875} ; [ DW_TAG_subprogram ]
!719 = metadata !{i32 786453, i32 0, metadata !"", i32 0, i32 0, i64 0, i64 0, i64 0, i32 0, null, metadata !720, i32 0, i32 0} ; [ DW_TAG_subroutine_type ]
!720 = metadata !{metadata !721, metadata !643}
!721 = metadata !{i32 786434, null, metadata !"ap_int_base<9, true, true>", metadata !79, i32 1397, i64 16, i64 16, i32 0, i32 0, null, metadata !722, i32 0, null, metadata !998} ; [ DW_TAG_class_type ]
!722 = metadata !{metadata !723, metadata !735, metadata !739, metadata !742, metadata !745, metadata !748, metadata !751, metadata !754, metadata !757, metadata !760, metadata !763, metadata !766, metadata !769, metadata !772, metadata !775, metadata !778, metadata !781, metadata !784, metadata !789, metadata !794, metadata !799, metadata !800, metadata !804, metadata !807, metadata !810, metadata !813, metadata !816, metadata !819, metadata !822, metadata !825, metadata !828, metadata !831, metadata !834, metadata !837, metadata !846, metadata !849, metadata !852, metadata !855, metadata !858, metadata !861, metadata !864, metadata !867, metadata !870, metadata !873, metadata !876, metadata !879, metadata !882, metadata !883, metadata !887, metadata !890, metadata !891, metadata !892, metadata !893, metadata !894, metadata !895, metadata !898, metadata !899, metadata !902, metadata !903, metadata !904, metadata !905, metadata !906, metadata !907, metadata !910, metadata !911, metadata !912, metadata !915, metadata !916, metadata !919, metadata !920, metadata !924, metadata !928, metadata !929, metadata !932, metadata !933, metadata !972, metadata !973, metadata !974, metadata !975, metadata !978, metadata !979, metadata !980, metadata !981, metadata !982, metadata !983, metadata !984, metadata !985, metadata !986, metadata !987, metadata !988, metadata !989, metadata !992, metadata !995}
!723 = metadata !{i32 786460, metadata !721, null, metadata !79, i32 0, i64 0, i64 0, i64 0, i32 0, metadata !724} ; [ DW_TAG_inheritance ]
!724 = metadata !{i32 786434, null, metadata !"ssdm_int<9 + 1024 * 0, true>", metadata !83, i32 11, i64 16, i64 16, i32 0, i32 0, null, metadata !725, i32 0, null, metadata !732} ; [ DW_TAG_class_type ]
!725 = metadata !{metadata !726, metadata !728}
!726 = metadata !{i32 786445, metadata !724, metadata !"V", metadata !83, i32 11, i64 9, i64 16, i64 0, i32 0, metadata !727} ; [ DW_TAG_member ]
!727 = metadata !{i32 786468, null, metadata !"int9", null, i32 0, i64 9, i64 16, i64 0, i32 0, i32 5} ; [ DW_TAG_base_type ]
!728 = metadata !{i32 786478, i32 0, metadata !724, metadata !"ssdm_int", metadata !"ssdm_int", metadata !"", metadata !83, i32 11, metadata !729, i1 false, i1 false, i32 0, i32 0, null, i32 256, i1 false, null, null, i32 0, metadata !91, i32 11} ; [ DW_TAG_subprogram ]
!729 = metadata !{i32 786453, i32 0, metadata !"", i32 0, i32 0, i64 0, i64 0, i64 0, i32 0, null, metadata !730, i32 0, i32 0} ; [ DW_TAG_subroutine_type ]
!730 = metadata !{null, metadata !731}
!731 = metadata !{i32 786447, i32 0, metadata !"", i32 0, i32 0, i64 64, i64 64, i64 0, i32 64, metadata !724} ; [ DW_TAG_pointer_type ]
!732 = metadata !{metadata !733, metadata !734}
!733 = metadata !{i32 786480, null, metadata !"_AP_N", metadata !71, i64 9, null, i32 0, i32 0} ; [ DW_TAG_template_value_parameter ]
!734 = metadata !{i32 786480, null, metadata !"_AP_S", metadata !101, i64 1, null, i32 0, i32 0} ; [ DW_TAG_template_value_parameter ]
!735 = metadata !{i32 786478, i32 0, metadata !721, metadata !"ap_int_base", metadata !"ap_int_base", metadata !"", metadata !79, i32 1438, metadata !736, i1 false, i1 false, i32 0, i32 0, null, i32 256, i1 false, null, null, i32 0, metadata !91, i32 1438} ; [ DW_TAG_subprogram ]
!736 = metadata !{i32 786453, i32 0, metadata !"", i32 0, i32 0, i64 0, i64 0, i64 0, i32 0, null, metadata !737, i32 0, i32 0} ; [ DW_TAG_subroutine_type ]
!737 = metadata !{null, metadata !738}
!738 = metadata !{i32 786447, i32 0, metadata !"", i32 0, i32 0, i64 64, i64 64, i64 0, i32 64, metadata !721} ; [ DW_TAG_pointer_type ]
!739 = metadata !{i32 786478, i32 0, metadata !721, metadata !"ap_int_base", metadata !"ap_int_base", metadata !"", metadata !79, i32 1460, metadata !740, i1 false, i1 false, i32 0, i32 0, null, i32 384, i1 false, null, null, i32 0, metadata !91, i32 1460} ; [ DW_TAG_subprogram ]
!740 = metadata !{i32 786453, i32 0, metadata !"", i32 0, i32 0, i64 0, i64 0, i64 0, i32 0, null, metadata !741, i32 0, i32 0} ; [ DW_TAG_subroutine_type ]
!741 = metadata !{null, metadata !738, metadata !101}
!742 = metadata !{i32 786478, i32 0, metadata !721, metadata !"ap_int_base", metadata !"ap_int_base", metadata !"", metadata !79, i32 1461, metadata !743, i1 false, i1 false, i32 0, i32 0, null, i32 384, i1 false, null, null, i32 0, metadata !91, i32 1461} ; [ DW_TAG_subprogram ]
!743 = metadata !{i32 786453, i32 0, metadata !"", i32 0, i32 0, i64 0, i64 0, i64 0, i32 0, null, metadata !744, i32 0, i32 0} ; [ DW_TAG_subroutine_type ]
!744 = metadata !{null, metadata !738, metadata !126}
!745 = metadata !{i32 786478, i32 0, metadata !721, metadata !"ap_int_base", metadata !"ap_int_base", metadata !"", metadata !79, i32 1462, metadata !746, i1 false, i1 false, i32 0, i32 0, null, i32 384, i1 false, null, null, i32 0, metadata !91, i32 1462} ; [ DW_TAG_subprogram ]
!746 = metadata !{i32 786453, i32 0, metadata !"", i32 0, i32 0, i64 0, i64 0, i64 0, i32 0, null, metadata !747, i32 0, i32 0} ; [ DW_TAG_subroutine_type ]
!747 = metadata !{null, metadata !738, metadata !130}
!748 = metadata !{i32 786478, i32 0, metadata !721, metadata !"ap_int_base", metadata !"ap_int_base", metadata !"", metadata !79, i32 1463, metadata !749, i1 false, i1 false, i32 0, i32 0, null, i32 384, i1 false, null, null, i32 0, metadata !91, i32 1463} ; [ DW_TAG_subprogram ]
!749 = metadata !{i32 786453, i32 0, metadata !"", i32 0, i32 0, i64 0, i64 0, i64 0, i32 0, null, metadata !750, i32 0, i32 0} ; [ DW_TAG_subroutine_type ]
!750 = metadata !{null, metadata !738, metadata !134}
!751 = metadata !{i32 786478, i32 0, metadata !721, metadata !"ap_int_base", metadata !"ap_int_base", metadata !"", metadata !79, i32 1464, metadata !752, i1 false, i1 false, i32 0, i32 0, null, i32 384, i1 false, null, null, i32 0, metadata !91, i32 1464} ; [ DW_TAG_subprogram ]
!752 = metadata !{i32 786453, i32 0, metadata !"", i32 0, i32 0, i64 0, i64 0, i64 0, i32 0, null, metadata !753, i32 0, i32 0} ; [ DW_TAG_subroutine_type ]
!753 = metadata !{null, metadata !738, metadata !138}
!754 = metadata !{i32 786478, i32 0, metadata !721, metadata !"ap_int_base", metadata !"ap_int_base", metadata !"", metadata !79, i32 1465, metadata !755, i1 false, i1 false, i32 0, i32 0, null, i32 384, i1 false, null, null, i32 0, metadata !91, i32 1465} ; [ DW_TAG_subprogram ]
!755 = metadata !{i32 786453, i32 0, metadata !"", i32 0, i32 0, i64 0, i64 0, i64 0, i32 0, null, metadata !756, i32 0, i32 0} ; [ DW_TAG_subroutine_type ]
!756 = metadata !{null, metadata !738, metadata !71}
!757 = metadata !{i32 786478, i32 0, metadata !721, metadata !"ap_int_base", metadata !"ap_int_base", metadata !"", metadata !79, i32 1466, metadata !758, i1 false, i1 false, i32 0, i32 0, null, i32 384, i1 false, null, null, i32 0, metadata !91, i32 1466} ; [ DW_TAG_subprogram ]
!758 = metadata !{i32 786453, i32 0, metadata !"", i32 0, i32 0, i64 0, i64 0, i64 0, i32 0, null, metadata !759, i32 0, i32 0} ; [ DW_TAG_subroutine_type ]
!759 = metadata !{null, metadata !738, metadata !145}
!760 = metadata !{i32 786478, i32 0, metadata !721, metadata !"ap_int_base", metadata !"ap_int_base", metadata !"", metadata !79, i32 1467, metadata !761, i1 false, i1 false, i32 0, i32 0, null, i32 384, i1 false, null, null, i32 0, metadata !91, i32 1467} ; [ DW_TAG_subprogram ]
!761 = metadata !{i32 786453, i32 0, metadata !"", i32 0, i32 0, i64 0, i64 0, i64 0, i32 0, null, metadata !762, i32 0, i32 0} ; [ DW_TAG_subroutine_type ]
!762 = metadata !{null, metadata !738, metadata !149}
!763 = metadata !{i32 786478, i32 0, metadata !721, metadata !"ap_int_base", metadata !"ap_int_base", metadata !"", metadata !79, i32 1468, metadata !764, i1 false, i1 false, i32 0, i32 0, null, i32 384, i1 false, null, null, i32 0, metadata !91, i32 1468} ; [ DW_TAG_subprogram ]
!764 = metadata !{i32 786453, i32 0, metadata !"", i32 0, i32 0, i64 0, i64 0, i64 0, i32 0, null, metadata !765, i32 0, i32 0} ; [ DW_TAG_subroutine_type ]
!765 = metadata !{null, metadata !738, metadata !153}
!766 = metadata !{i32 786478, i32 0, metadata !721, metadata !"ap_int_base", metadata !"ap_int_base", metadata !"", metadata !79, i32 1469, metadata !767, i1 false, i1 false, i32 0, i32 0, null, i32 384, i1 false, null, null, i32 0, metadata !91, i32 1469} ; [ DW_TAG_subprogram ]
!767 = metadata !{i32 786453, i32 0, metadata !"", i32 0, i32 0, i64 0, i64 0, i64 0, i32 0, null, metadata !768, i32 0, i32 0} ; [ DW_TAG_subroutine_type ]
!768 = metadata !{null, metadata !738, metadata !157}
!769 = metadata !{i32 786478, i32 0, metadata !721, metadata !"ap_int_base", metadata !"ap_int_base", metadata !"", metadata !79, i32 1470, metadata !770, i1 false, i1 false, i32 0, i32 0, null, i32 384, i1 false, null, null, i32 0, metadata !91, i32 1470} ; [ DW_TAG_subprogram ]
!770 = metadata !{i32 786453, i32 0, metadata !"", i32 0, i32 0, i64 0, i64 0, i64 0, i32 0, null, metadata !771, i32 0, i32 0} ; [ DW_TAG_subroutine_type ]
!771 = metadata !{null, metadata !738, metadata !162}
!772 = metadata !{i32 786478, i32 0, metadata !721, metadata !"ap_int_base", metadata !"ap_int_base", metadata !"", metadata !79, i32 1471, metadata !773, i1 false, i1 false, i32 0, i32 0, null, i32 384, i1 false, null, null, i32 0, metadata !91, i32 1471} ; [ DW_TAG_subprogram ]
!773 = metadata !{i32 786453, i32 0, metadata !"", i32 0, i32 0, i64 0, i64 0, i64 0, i32 0, null, metadata !774, i32 0, i32 0} ; [ DW_TAG_subroutine_type ]
!774 = metadata !{null, metadata !738, metadata !167}
!775 = metadata !{i32 786478, i32 0, metadata !721, metadata !"ap_int_base", metadata !"ap_int_base", metadata !"", metadata !79, i32 1472, metadata !776, i1 false, i1 false, i32 0, i32 0, null, i32 384, i1 false, null, null, i32 0, metadata !91, i32 1472} ; [ DW_TAG_subprogram ]
!776 = metadata !{i32 786453, i32 0, metadata !"", i32 0, i32 0, i64 0, i64 0, i64 0, i32 0, null, metadata !777, i32 0, i32 0} ; [ DW_TAG_subroutine_type ]
!777 = metadata !{null, metadata !738, metadata !171}
!778 = metadata !{i32 786478, i32 0, metadata !721, metadata !"ap_int_base", metadata !"ap_int_base", metadata !"", metadata !79, i32 1499, metadata !779, i1 false, i1 false, i32 0, i32 0, null, i32 256, i1 false, null, null, i32 0, metadata !91, i32 1499} ; [ DW_TAG_subprogram ]
!779 = metadata !{i32 786453, i32 0, metadata !"", i32 0, i32 0, i64 0, i64 0, i64 0, i32 0, null, metadata !780, i32 0, i32 0} ; [ DW_TAG_subroutine_type ]
!780 = metadata !{null, metadata !738, metadata !175}
!781 = metadata !{i32 786478, i32 0, metadata !721, metadata !"ap_int_base", metadata !"ap_int_base", metadata !"", metadata !79, i32 1506, metadata !782, i1 false, i1 false, i32 0, i32 0, null, i32 256, i1 false, null, null, i32 0, metadata !91, i32 1506} ; [ DW_TAG_subprogram ]
!782 = metadata !{i32 786453, i32 0, metadata !"", i32 0, i32 0, i64 0, i64 0, i64 0, i32 0, null, metadata !783, i32 0, i32 0} ; [ DW_TAG_subroutine_type ]
!783 = metadata !{null, metadata !738, metadata !175, metadata !126}
!784 = metadata !{i32 786478, i32 0, metadata !721, metadata !"read", metadata !"read", metadata !"_ZNV11ap_int_baseILi9ELb1ELb1EE4readEv", metadata !79, i32 1527, metadata !785, i1 false, i1 false, i32 0, i32 0, null, i32 256, i1 false, null, null, i32 0, metadata !91, i32 1527} ; [ DW_TAG_subprogram ]
!785 = metadata !{i32 786453, i32 0, metadata !"", i32 0, i32 0, i64 0, i64 0, i64 0, i32 0, null, metadata !786, i32 0, i32 0} ; [ DW_TAG_subroutine_type ]
!786 = metadata !{metadata !721, metadata !787}
!787 = metadata !{i32 786447, i32 0, metadata !"", i32 0, i32 0, i64 64, i64 64, i64 0, i32 64, metadata !788} ; [ DW_TAG_pointer_type ]
!788 = metadata !{i32 786485, null, metadata !"", null, i32 0, i64 0, i64 0, i64 0, i32 0, metadata !721} ; [ DW_TAG_volatile_type ]
!789 = metadata !{i32 786478, i32 0, metadata !721, metadata !"write", metadata !"write", metadata !"_ZNV11ap_int_baseILi9ELb1ELb1EE5writeERKS0_", metadata !79, i32 1533, metadata !790, i1 false, i1 false, i32 0, i32 0, null, i32 256, i1 false, null, null, i32 0, metadata !91, i32 1533} ; [ DW_TAG_subprogram ]
!790 = metadata !{i32 786453, i32 0, metadata !"", i32 0, i32 0, i64 0, i64 0, i64 0, i32 0, null, metadata !791, i32 0, i32 0} ; [ DW_TAG_subroutine_type ]
!791 = metadata !{null, metadata !787, metadata !792}
!792 = metadata !{i32 786448, null, null, null, i32 0, i64 0, i64 0, i64 0, i32 0, metadata !793} ; [ DW_TAG_reference_type ]
!793 = metadata !{i32 786470, null, metadata !"", null, i32 0, i64 0, i64 0, i64 0, i32 0, metadata !721} ; [ DW_TAG_const_type ]
!794 = metadata !{i32 786478, i32 0, metadata !721, metadata !"operator=", metadata !"operator=", metadata !"_ZNV11ap_int_baseILi9ELb1ELb1EEaSERVKS0_", metadata !79, i32 1545, metadata !795, i1 false, i1 false, i32 0, i32 0, null, i32 256, i1 false, null, null, i32 0, metadata !91, i32 1545} ; [ DW_TAG_subprogram ]
!795 = metadata !{i32 786453, i32 0, metadata !"", i32 0, i32 0, i64 0, i64 0, i64 0, i32 0, null, metadata !796, i32 0, i32 0} ; [ DW_TAG_subroutine_type ]
!796 = metadata !{null, metadata !787, metadata !797}
!797 = metadata !{i32 786448, null, null, null, i32 0, i64 0, i64 0, i64 0, i32 0, metadata !798} ; [ DW_TAG_reference_type ]
!798 = metadata !{i32 786470, null, metadata !"", null, i32 0, i64 0, i64 0, i64 0, i32 0, metadata !788} ; [ DW_TAG_const_type ]
!799 = metadata !{i32 786478, i32 0, metadata !721, metadata !"operator=", metadata !"operator=", metadata !"_ZNV11ap_int_baseILi9ELb1ELb1EEaSERKS0_", metadata !79, i32 1554, metadata !790, i1 false, i1 false, i32 0, i32 0, null, i32 256, i1 false, null, null, i32 0, metadata !91, i32 1554} ; [ DW_TAG_subprogram ]
!800 = metadata !{i32 786478, i32 0, metadata !721, metadata !"operator=", metadata !"operator=", metadata !"_ZN11ap_int_baseILi9ELb1ELb1EEaSERVKS0_", metadata !79, i32 1577, metadata !801, i1 false, i1 false, i32 0, i32 0, null, i32 256, i1 false, null, null, i32 0, metadata !91, i32 1577} ; [ DW_TAG_subprogram ]
!801 = metadata !{i32 786453, i32 0, metadata !"", i32 0, i32 0, i64 0, i64 0, i64 0, i32 0, null, metadata !802, i32 0, i32 0} ; [ DW_TAG_subroutine_type ]
!802 = metadata !{metadata !803, metadata !738, metadata !797}
!803 = metadata !{i32 786448, null, null, null, i32 0, i64 0, i64 0, i64 0, i32 0, metadata !721} ; [ DW_TAG_reference_type ]
!804 = metadata !{i32 786478, i32 0, metadata !721, metadata !"operator=", metadata !"operator=", metadata !"_ZN11ap_int_baseILi9ELb1ELb1EEaSERKS0_", metadata !79, i32 1582, metadata !805, i1 false, i1 false, i32 0, i32 0, null, i32 256, i1 false, null, null, i32 0, metadata !91, i32 1582} ; [ DW_TAG_subprogram ]
!805 = metadata !{i32 786453, i32 0, metadata !"", i32 0, i32 0, i64 0, i64 0, i64 0, i32 0, null, metadata !806, i32 0, i32 0} ; [ DW_TAG_subroutine_type ]
!806 = metadata !{metadata !803, metadata !738, metadata !792}
!807 = metadata !{i32 786478, i32 0, metadata !721, metadata !"operator=", metadata !"operator=", metadata !"_ZN11ap_int_baseILi9ELb1ELb1EEaSEPKc", metadata !79, i32 1586, metadata !808, i1 false, i1 false, i32 0, i32 0, null, i32 256, i1 false, null, null, i32 0, metadata !91, i32 1586} ; [ DW_TAG_subprogram ]
!808 = metadata !{i32 786453, i32 0, metadata !"", i32 0, i32 0, i64 0, i64 0, i64 0, i32 0, null, metadata !809, i32 0, i32 0} ; [ DW_TAG_subroutine_type ]
!809 = metadata !{metadata !803, metadata !738, metadata !175}
!810 = metadata !{i32 786478, i32 0, metadata !721, metadata !"set", metadata !"set", metadata !"_ZN11ap_int_baseILi9ELb1ELb1EE3setEPKca", metadata !79, i32 1594, metadata !811, i1 false, i1 false, i32 0, i32 0, null, i32 256, i1 false, null, null, i32 0, metadata !91, i32 1594} ; [ DW_TAG_subprogram ]
!811 = metadata !{i32 786453, i32 0, metadata !"", i32 0, i32 0, i64 0, i64 0, i64 0, i32 0, null, metadata !812, i32 0, i32 0} ; [ DW_TAG_subroutine_type ]
!812 = metadata !{metadata !803, metadata !738, metadata !175, metadata !126}
!813 = metadata !{i32 786478, i32 0, metadata !721, metadata !"operator=", metadata !"operator=", metadata !"_ZN11ap_int_baseILi9ELb1ELb1EEaSEa", metadata !79, i32 1608, metadata !814, i1 false, i1 false, i32 0, i32 0, null, i32 256, i1 false, null, null, i32 0, metadata !91, i32 1608} ; [ DW_TAG_subprogram ]
!814 = metadata !{i32 786453, i32 0, metadata !"", i32 0, i32 0, i64 0, i64 0, i64 0, i32 0, null, metadata !815, i32 0, i32 0} ; [ DW_TAG_subroutine_type ]
!815 = metadata !{metadata !803, metadata !738, metadata !126}
!816 = metadata !{i32 786478, i32 0, metadata !721, metadata !"operator=", metadata !"operator=", metadata !"_ZN11ap_int_baseILi9ELb1ELb1EEaSEh", metadata !79, i32 1609, metadata !817, i1 false, i1 false, i32 0, i32 0, null, i32 256, i1 false, null, null, i32 0, metadata !91, i32 1609} ; [ DW_TAG_subprogram ]
!817 = metadata !{i32 786453, i32 0, metadata !"", i32 0, i32 0, i64 0, i64 0, i64 0, i32 0, null, metadata !818, i32 0, i32 0} ; [ DW_TAG_subroutine_type ]
!818 = metadata !{metadata !803, metadata !738, metadata !130}
!819 = metadata !{i32 786478, i32 0, metadata !721, metadata !"operator=", metadata !"operator=", metadata !"_ZN11ap_int_baseILi9ELb1ELb1EEaSEs", metadata !79, i32 1610, metadata !820, i1 false, i1 false, i32 0, i32 0, null, i32 256, i1 false, null, null, i32 0, metadata !91, i32 1610} ; [ DW_TAG_subprogram ]
!820 = metadata !{i32 786453, i32 0, metadata !"", i32 0, i32 0, i64 0, i64 0, i64 0, i32 0, null, metadata !821, i32 0, i32 0} ; [ DW_TAG_subroutine_type ]
!821 = metadata !{metadata !803, metadata !738, metadata !134}
!822 = metadata !{i32 786478, i32 0, metadata !721, metadata !"operator=", metadata !"operator=", metadata !"_ZN11ap_int_baseILi9ELb1ELb1EEaSEt", metadata !79, i32 1611, metadata !823, i1 false, i1 false, i32 0, i32 0, null, i32 256, i1 false, null, null, i32 0, metadata !91, i32 1611} ; [ DW_TAG_subprogram ]
!823 = metadata !{i32 786453, i32 0, metadata !"", i32 0, i32 0, i64 0, i64 0, i64 0, i32 0, null, metadata !824, i32 0, i32 0} ; [ DW_TAG_subroutine_type ]
!824 = metadata !{metadata !803, metadata !738, metadata !138}
!825 = metadata !{i32 786478, i32 0, metadata !721, metadata !"operator=", metadata !"operator=", metadata !"_ZN11ap_int_baseILi9ELb1ELb1EEaSEi", metadata !79, i32 1612, metadata !826, i1 false, i1 false, i32 0, i32 0, null, i32 256, i1 false, null, null, i32 0, metadata !91, i32 1612} ; [ DW_TAG_subprogram ]
!826 = metadata !{i32 786453, i32 0, metadata !"", i32 0, i32 0, i64 0, i64 0, i64 0, i32 0, null, metadata !827, i32 0, i32 0} ; [ DW_TAG_subroutine_type ]
!827 = metadata !{metadata !803, metadata !738, metadata !71}
!828 = metadata !{i32 786478, i32 0, metadata !721, metadata !"operator=", metadata !"operator=", metadata !"_ZN11ap_int_baseILi9ELb1ELb1EEaSEj", metadata !79, i32 1613, metadata !829, i1 false, i1 false, i32 0, i32 0, null, i32 256, i1 false, null, null, i32 0, metadata !91, i32 1613} ; [ DW_TAG_subprogram ]
!829 = metadata !{i32 786453, i32 0, metadata !"", i32 0, i32 0, i64 0, i64 0, i64 0, i32 0, null, metadata !830, i32 0, i32 0} ; [ DW_TAG_subroutine_type ]
!830 = metadata !{metadata !803, metadata !738, metadata !145}
!831 = metadata !{i32 786478, i32 0, metadata !721, metadata !"operator=", metadata !"operator=", metadata !"_ZN11ap_int_baseILi9ELb1ELb1EEaSEx", metadata !79, i32 1614, metadata !832, i1 false, i1 false, i32 0, i32 0, null, i32 256, i1 false, null, null, i32 0, metadata !91, i32 1614} ; [ DW_TAG_subprogram ]
!832 = metadata !{i32 786453, i32 0, metadata !"", i32 0, i32 0, i64 0, i64 0, i64 0, i32 0, null, metadata !833, i32 0, i32 0} ; [ DW_TAG_subroutine_type ]
!833 = metadata !{metadata !803, metadata !738, metadata !157}
!834 = metadata !{i32 786478, i32 0, metadata !721, metadata !"operator=", metadata !"operator=", metadata !"_ZN11ap_int_baseILi9ELb1ELb1EEaSEy", metadata !79, i32 1615, metadata !835, i1 false, i1 false, i32 0, i32 0, null, i32 256, i1 false, null, null, i32 0, metadata !91, i32 1615} ; [ DW_TAG_subprogram ]
!835 = metadata !{i32 786453, i32 0, metadata !"", i32 0, i32 0, i64 0, i64 0, i64 0, i32 0, null, metadata !836, i32 0, i32 0} ; [ DW_TAG_subroutine_type ]
!836 = metadata !{metadata !803, metadata !738, metadata !162}
!837 = metadata !{i32 786478, i32 0, metadata !721, metadata !"operator short", metadata !"operator short", metadata !"_ZNK11ap_int_baseILi9ELb1ELb1EEcvsEv", metadata !79, i32 1653, metadata !838, i1 false, i1 false, i32 0, i32 0, null, i32 256, i1 false, null, null, i32 0, metadata !91, i32 1653} ; [ DW_TAG_subprogram ]
!838 = metadata !{i32 786453, i32 0, metadata !"", i32 0, i32 0, i64 0, i64 0, i64 0, i32 0, null, metadata !839, i32 0, i32 0} ; [ DW_TAG_subroutine_type ]
!839 = metadata !{metadata !840, metadata !845}
!840 = metadata !{i32 786454, metadata !721, metadata !"RetType", metadata !79, i32 1402, i64 0, i64 0, i64 0, i32 0, metadata !841} ; [ DW_TAG_typedef ]
!841 = metadata !{i32 786454, metadata !842, metadata !"Type", metadata !79, i32 1373, i64 0, i64 0, i64 0, i32 0, metadata !134} ; [ DW_TAG_typedef ]
!842 = metadata !{i32 786434, null, metadata !"retval<2, true>", metadata !79, i32 1372, i64 8, i64 8, i32 0, i32 0, null, metadata !235, i32 0, null, metadata !843} ; [ DW_TAG_class_type ]
!843 = metadata !{metadata !844, metadata !734}
!844 = metadata !{i32 786480, null, metadata !"_AP_N", metadata !71, i64 2, null, i32 0, i32 0} ; [ DW_TAG_template_value_parameter ]
!845 = metadata !{i32 786447, i32 0, metadata !"", i32 0, i32 0, i64 64, i64 64, i64 0, i32 64, metadata !793} ; [ DW_TAG_pointer_type ]
!846 = metadata !{i32 786478, i32 0, metadata !721, metadata !"to_bool", metadata !"to_bool", metadata !"_ZNK11ap_int_baseILi9ELb1ELb1EE7to_boolEv", metadata !79, i32 1659, metadata !847, i1 false, i1 false, i32 0, i32 0, null, i32 256, i1 false, null, null, i32 0, metadata !91, i32 1659} ; [ DW_TAG_subprogram ]
!847 = metadata !{i32 786453, i32 0, metadata !"", i32 0, i32 0, i64 0, i64 0, i64 0, i32 0, null, metadata !848, i32 0, i32 0} ; [ DW_TAG_subroutine_type ]
!848 = metadata !{metadata !101, metadata !845}
!849 = metadata !{i32 786478, i32 0, metadata !721, metadata !"to_uchar", metadata !"to_uchar", metadata !"_ZNK11ap_int_baseILi9ELb1ELb1EE8to_ucharEv", metadata !79, i32 1660, metadata !850, i1 false, i1 false, i32 0, i32 0, null, i32 256, i1 false, null, null, i32 0, metadata !91, i32 1660} ; [ DW_TAG_subprogram ]
!850 = metadata !{i32 786453, i32 0, metadata !"", i32 0, i32 0, i64 0, i64 0, i64 0, i32 0, null, metadata !851, i32 0, i32 0} ; [ DW_TAG_subroutine_type ]
!851 = metadata !{metadata !130, metadata !845}
!852 = metadata !{i32 786478, i32 0, metadata !721, metadata !"to_char", metadata !"to_char", metadata !"_ZNK11ap_int_baseILi9ELb1ELb1EE7to_charEv", metadata !79, i32 1661, metadata !853, i1 false, i1 false, i32 0, i32 0, null, i32 256, i1 false, null, null, i32 0, metadata !91, i32 1661} ; [ DW_TAG_subprogram ]
!853 = metadata !{i32 786453, i32 0, metadata !"", i32 0, i32 0, i64 0, i64 0, i64 0, i32 0, null, metadata !854, i32 0, i32 0} ; [ DW_TAG_subroutine_type ]
!854 = metadata !{metadata !126, metadata !845}
!855 = metadata !{i32 786478, i32 0, metadata !721, metadata !"to_ushort", metadata !"to_ushort", metadata !"_ZNK11ap_int_baseILi9ELb1ELb1EE9to_ushortEv", metadata !79, i32 1662, metadata !856, i1 false, i1 false, i32 0, i32 0, null, i32 256, i1 false, null, null, i32 0, metadata !91, i32 1662} ; [ DW_TAG_subprogram ]
!856 = metadata !{i32 786453, i32 0, metadata !"", i32 0, i32 0, i64 0, i64 0, i64 0, i32 0, null, metadata !857, i32 0, i32 0} ; [ DW_TAG_subroutine_type ]
!857 = metadata !{metadata !138, metadata !845}
!858 = metadata !{i32 786478, i32 0, metadata !721, metadata !"to_short", metadata !"to_short", metadata !"_ZNK11ap_int_baseILi9ELb1ELb1EE8to_shortEv", metadata !79, i32 1663, metadata !859, i1 false, i1 false, i32 0, i32 0, null, i32 256, i1 false, null, null, i32 0, metadata !91, i32 1663} ; [ DW_TAG_subprogram ]
!859 = metadata !{i32 786453, i32 0, metadata !"", i32 0, i32 0, i64 0, i64 0, i64 0, i32 0, null, metadata !860, i32 0, i32 0} ; [ DW_TAG_subroutine_type ]
!860 = metadata !{metadata !134, metadata !845}
!861 = metadata !{i32 786478, i32 0, metadata !721, metadata !"to_int", metadata !"to_int", metadata !"_ZNK11ap_int_baseILi9ELb1ELb1EE6to_intEv", metadata !79, i32 1664, metadata !862, i1 false, i1 false, i32 0, i32 0, null, i32 256, i1 false, null, null, i32 0, metadata !91, i32 1664} ; [ DW_TAG_subprogram ]
!862 = metadata !{i32 786453, i32 0, metadata !"", i32 0, i32 0, i64 0, i64 0, i64 0, i32 0, null, metadata !863, i32 0, i32 0} ; [ DW_TAG_subroutine_type ]
!863 = metadata !{metadata !71, metadata !845}
!864 = metadata !{i32 786478, i32 0, metadata !721, metadata !"to_uint", metadata !"to_uint", metadata !"_ZNK11ap_int_baseILi9ELb1ELb1EE7to_uintEv", metadata !79, i32 1665, metadata !865, i1 false, i1 false, i32 0, i32 0, null, i32 256, i1 false, null, null, i32 0, metadata !91, i32 1665} ; [ DW_TAG_subprogram ]
!865 = metadata !{i32 786453, i32 0, metadata !"", i32 0, i32 0, i64 0, i64 0, i64 0, i32 0, null, metadata !866, i32 0, i32 0} ; [ DW_TAG_subroutine_type ]
!866 = metadata !{metadata !145, metadata !845}
!867 = metadata !{i32 786478, i32 0, metadata !721, metadata !"to_long", metadata !"to_long", metadata !"_ZNK11ap_int_baseILi9ELb1ELb1EE7to_longEv", metadata !79, i32 1666, metadata !868, i1 false, i1 false, i32 0, i32 0, null, i32 256, i1 false, null, null, i32 0, metadata !91, i32 1666} ; [ DW_TAG_subprogram ]
!868 = metadata !{i32 786453, i32 0, metadata !"", i32 0, i32 0, i64 0, i64 0, i64 0, i32 0, null, metadata !869, i32 0, i32 0} ; [ DW_TAG_subroutine_type ]
!869 = metadata !{metadata !149, metadata !845}
!870 = metadata !{i32 786478, i32 0, metadata !721, metadata !"to_ulong", metadata !"to_ulong", metadata !"_ZNK11ap_int_baseILi9ELb1ELb1EE8to_ulongEv", metadata !79, i32 1667, metadata !871, i1 false, i1 false, i32 0, i32 0, null, i32 256, i1 false, null, null, i32 0, metadata !91, i32 1667} ; [ DW_TAG_subprogram ]
!871 = metadata !{i32 786453, i32 0, metadata !"", i32 0, i32 0, i64 0, i64 0, i64 0, i32 0, null, metadata !872, i32 0, i32 0} ; [ DW_TAG_subroutine_type ]
!872 = metadata !{metadata !153, metadata !845}
!873 = metadata !{i32 786478, i32 0, metadata !721, metadata !"to_int64", metadata !"to_int64", metadata !"_ZNK11ap_int_baseILi9ELb1ELb1EE8to_int64Ev", metadata !79, i32 1668, metadata !874, i1 false, i1 false, i32 0, i32 0, null, i32 256, i1 false, null, null, i32 0, metadata !91, i32 1668} ; [ DW_TAG_subprogram ]
!874 = metadata !{i32 786453, i32 0, metadata !"", i32 0, i32 0, i64 0, i64 0, i64 0, i32 0, null, metadata !875, i32 0, i32 0} ; [ DW_TAG_subroutine_type ]
!875 = metadata !{metadata !157, metadata !845}
!876 = metadata !{i32 786478, i32 0, metadata !721, metadata !"to_uint64", metadata !"to_uint64", metadata !"_ZNK11ap_int_baseILi9ELb1ELb1EE9to_uint64Ev", metadata !79, i32 1669, metadata !877, i1 false, i1 false, i32 0, i32 0, null, i32 256, i1 false, null, null, i32 0, metadata !91, i32 1669} ; [ DW_TAG_subprogram ]
!877 = metadata !{i32 786453, i32 0, metadata !"", i32 0, i32 0, i64 0, i64 0, i64 0, i32 0, null, metadata !878, i32 0, i32 0} ; [ DW_TAG_subroutine_type ]
!878 = metadata !{metadata !162, metadata !845}
!879 = metadata !{i32 786478, i32 0, metadata !721, metadata !"to_double", metadata !"to_double", metadata !"_ZNK11ap_int_baseILi9ELb1ELb1EE9to_doubleEv", metadata !79, i32 1670, metadata !880, i1 false, i1 false, i32 0, i32 0, null, i32 256, i1 false, null, null, i32 0, metadata !91, i32 1670} ; [ DW_TAG_subprogram ]
!880 = metadata !{i32 786453, i32 0, metadata !"", i32 0, i32 0, i64 0, i64 0, i64 0, i32 0, null, metadata !881, i32 0, i32 0} ; [ DW_TAG_subroutine_type ]
!881 = metadata !{metadata !171, metadata !845}
!882 = metadata !{i32 786478, i32 0, metadata !721, metadata !"length", metadata !"length", metadata !"_ZNK11ap_int_baseILi9ELb1ELb1EE6lengthEv", metadata !79, i32 1684, metadata !862, i1 false, i1 false, i32 0, i32 0, null, i32 256, i1 false, null, null, i32 0, metadata !91, i32 1684} ; [ DW_TAG_subprogram ]
!883 = metadata !{i32 786478, i32 0, metadata !721, metadata !"length", metadata !"length", metadata !"_ZNVK11ap_int_baseILi9ELb1ELb1EE6lengthEv", metadata !79, i32 1685, metadata !884, i1 false, i1 false, i32 0, i32 0, null, i32 256, i1 false, null, null, i32 0, metadata !91, i32 1685} ; [ DW_TAG_subprogram ]
!884 = metadata !{i32 786453, i32 0, metadata !"", i32 0, i32 0, i64 0, i64 0, i64 0, i32 0, null, metadata !885, i32 0, i32 0} ; [ DW_TAG_subroutine_type ]
!885 = metadata !{metadata !71, metadata !886}
!886 = metadata !{i32 786447, i32 0, metadata !"", i32 0, i32 0, i64 64, i64 64, i64 0, i32 64, metadata !798} ; [ DW_TAG_pointer_type ]
!887 = metadata !{i32 786478, i32 0, metadata !721, metadata !"reverse", metadata !"reverse", metadata !"_ZN11ap_int_baseILi9ELb1ELb1EE7reverseEv", metadata !79, i32 1690, metadata !888, i1 false, i1 false, i32 0, i32 0, null, i32 256, i1 false, null, null, i32 0, metadata !91, i32 1690} ; [ DW_TAG_subprogram ]
!888 = metadata !{i32 786453, i32 0, metadata !"", i32 0, i32 0, i64 0, i64 0, i64 0, i32 0, null, metadata !889, i32 0, i32 0} ; [ DW_TAG_subroutine_type ]
!889 = metadata !{metadata !803, metadata !738}
!890 = metadata !{i32 786478, i32 0, metadata !721, metadata !"iszero", metadata !"iszero", metadata !"_ZNK11ap_int_baseILi9ELb1ELb1EE6iszeroEv", metadata !79, i32 1696, metadata !847, i1 false, i1 false, i32 0, i32 0, null, i32 256, i1 false, null, null, i32 0, metadata !91, i32 1696} ; [ DW_TAG_subprogram ]
!891 = metadata !{i32 786478, i32 0, metadata !721, metadata !"is_zero", metadata !"is_zero", metadata !"_ZNK11ap_int_baseILi9ELb1ELb1EE7is_zeroEv", metadata !79, i32 1701, metadata !847, i1 false, i1 false, i32 0, i32 0, null, i32 256, i1 false, null, null, i32 0, metadata !91, i32 1701} ; [ DW_TAG_subprogram ]
!892 = metadata !{i32 786478, i32 0, metadata !721, metadata !"sign", metadata !"sign", metadata !"_ZNK11ap_int_baseILi9ELb1ELb1EE4signEv", metadata !79, i32 1706, metadata !847, i1 false, i1 false, i32 0, i32 0, null, i32 256, i1 false, null, null, i32 0, metadata !91, i32 1706} ; [ DW_TAG_subprogram ]
!893 = metadata !{i32 786478, i32 0, metadata !721, metadata !"clear", metadata !"clear", metadata !"_ZN11ap_int_baseILi9ELb1ELb1EE5clearEi", metadata !79, i32 1714, metadata !755, i1 false, i1 false, i32 0, i32 0, null, i32 256, i1 false, null, null, i32 0, metadata !91, i32 1714} ; [ DW_TAG_subprogram ]
!894 = metadata !{i32 786478, i32 0, metadata !721, metadata !"invert", metadata !"invert", metadata !"_ZN11ap_int_baseILi9ELb1ELb1EE6invertEi", metadata !79, i32 1720, metadata !755, i1 false, i1 false, i32 0, i32 0, null, i32 256, i1 false, null, null, i32 0, metadata !91, i32 1720} ; [ DW_TAG_subprogram ]
!895 = metadata !{i32 786478, i32 0, metadata !721, metadata !"test", metadata !"test", metadata !"_ZNK11ap_int_baseILi9ELb1ELb1EE4testEi", metadata !79, i32 1728, metadata !896, i1 false, i1 false, i32 0, i32 0, null, i32 256, i1 false, null, null, i32 0, metadata !91, i32 1728} ; [ DW_TAG_subprogram ]
!896 = metadata !{i32 786453, i32 0, metadata !"", i32 0, i32 0, i64 0, i64 0, i64 0, i32 0, null, metadata !897, i32 0, i32 0} ; [ DW_TAG_subroutine_type ]
!897 = metadata !{metadata !101, metadata !845, metadata !71}
!898 = metadata !{i32 786478, i32 0, metadata !721, metadata !"set", metadata !"set", metadata !"_ZN11ap_int_baseILi9ELb1ELb1EE3setEi", metadata !79, i32 1734, metadata !755, i1 false, i1 false, i32 0, i32 0, null, i32 256, i1 false, null, null, i32 0, metadata !91, i32 1734} ; [ DW_TAG_subprogram ]
!899 = metadata !{i32 786478, i32 0, metadata !721, metadata !"set", metadata !"set", metadata !"_ZN11ap_int_baseILi9ELb1ELb1EE3setEib", metadata !79, i32 1740, metadata !900, i1 false, i1 false, i32 0, i32 0, null, i32 256, i1 false, null, null, i32 0, metadata !91, i32 1740} ; [ DW_TAG_subprogram ]
!900 = metadata !{i32 786453, i32 0, metadata !"", i32 0, i32 0, i64 0, i64 0, i64 0, i32 0, null, metadata !901, i32 0, i32 0} ; [ DW_TAG_subroutine_type ]
!901 = metadata !{null, metadata !738, metadata !71, metadata !101}
!902 = metadata !{i32 786478, i32 0, metadata !721, metadata !"lrotate", metadata !"lrotate", metadata !"_ZN11ap_int_baseILi9ELb1ELb1EE7lrotateEi", metadata !79, i32 1747, metadata !755, i1 false, i1 false, i32 0, i32 0, null, i32 256, i1 false, null, null, i32 0, metadata !91, i32 1747} ; [ DW_TAG_subprogram ]
!903 = metadata !{i32 786478, i32 0, metadata !721, metadata !"rrotate", metadata !"rrotate", metadata !"_ZN11ap_int_baseILi9ELb1ELb1EE7rrotateEi", metadata !79, i32 1756, metadata !755, i1 false, i1 false, i32 0, i32 0, null, i32 256, i1 false, null, null, i32 0, metadata !91, i32 1756} ; [ DW_TAG_subprogram ]
!904 = metadata !{i32 786478, i32 0, metadata !721, metadata !"set_bit", metadata !"set_bit", metadata !"_ZN11ap_int_baseILi9ELb1ELb1EE7set_bitEib", metadata !79, i32 1764, metadata !900, i1 false, i1 false, i32 0, i32 0, null, i32 256, i1 false, null, null, i32 0, metadata !91, i32 1764} ; [ DW_TAG_subprogram ]
!905 = metadata !{i32 786478, i32 0, metadata !721, metadata !"get_bit", metadata !"get_bit", metadata !"_ZNK11ap_int_baseILi9ELb1ELb1EE7get_bitEi", metadata !79, i32 1769, metadata !896, i1 false, i1 false, i32 0, i32 0, null, i32 256, i1 false, null, null, i32 0, metadata !91, i32 1769} ; [ DW_TAG_subprogram ]
!906 = metadata !{i32 786478, i32 0, metadata !721, metadata !"b_not", metadata !"b_not", metadata !"_ZN11ap_int_baseILi9ELb1ELb1EE5b_notEv", metadata !79, i32 1774, metadata !736, i1 false, i1 false, i32 0, i32 0, null, i32 256, i1 false, null, null, i32 0, metadata !91, i32 1774} ; [ DW_TAG_subprogram ]
!907 = metadata !{i32 786478, i32 0, metadata !721, metadata !"countLeadingZeros", metadata !"countLeadingZeros", metadata !"_ZN11ap_int_baseILi9ELb1ELb1EE17countLeadingZerosEv", metadata !79, i32 1781, metadata !908, i1 false, i1 false, i32 0, i32 0, null, i32 256, i1 false, null, null, i32 0, metadata !91, i32 1781} ; [ DW_TAG_subprogram ]
!908 = metadata !{i32 786453, i32 0, metadata !"", i32 0, i32 0, i64 0, i64 0, i64 0, i32 0, null, metadata !909, i32 0, i32 0} ; [ DW_TAG_subroutine_type ]
!909 = metadata !{metadata !71, metadata !738}
!910 = metadata !{i32 786478, i32 0, metadata !721, metadata !"operator++", metadata !"operator++", metadata !"_ZN11ap_int_baseILi9ELb1ELb1EEppEv", metadata !79, i32 1838, metadata !888, i1 false, i1 false, i32 0, i32 0, null, i32 256, i1 false, null, null, i32 0, metadata !91, i32 1838} ; [ DW_TAG_subprogram ]
!911 = metadata !{i32 786478, i32 0, metadata !721, metadata !"operator--", metadata !"operator--", metadata !"_ZN11ap_int_baseILi9ELb1ELb1EEmmEv", metadata !79, i32 1842, metadata !888, i1 false, i1 false, i32 0, i32 0, null, i32 256, i1 false, null, null, i32 0, metadata !91, i32 1842} ; [ DW_TAG_subprogram ]
!912 = metadata !{i32 786478, i32 0, metadata !721, metadata !"operator++", metadata !"operator++", metadata !"_ZN11ap_int_baseILi9ELb1ELb1EEppEi", metadata !79, i32 1850, metadata !913, i1 false, i1 false, i32 0, i32 0, null, i32 256, i1 false, null, null, i32 0, metadata !91, i32 1850} ; [ DW_TAG_subprogram ]
!913 = metadata !{i32 786453, i32 0, metadata !"", i32 0, i32 0, i64 0, i64 0, i64 0, i32 0, null, metadata !914, i32 0, i32 0} ; [ DW_TAG_subroutine_type ]
!914 = metadata !{metadata !793, metadata !738, metadata !71}
!915 = metadata !{i32 786478, i32 0, metadata !721, metadata !"operator--", metadata !"operator--", metadata !"_ZN11ap_int_baseILi9ELb1ELb1EEmmEi", metadata !79, i32 1855, metadata !913, i1 false, i1 false, i32 0, i32 0, null, i32 256, i1 false, null, null, i32 0, metadata !91, i32 1855} ; [ DW_TAG_subprogram ]
!916 = metadata !{i32 786478, i32 0, metadata !721, metadata !"operator+", metadata !"operator+", metadata !"_ZNK11ap_int_baseILi9ELb1ELb1EEpsEv", metadata !79, i32 1864, metadata !917, i1 false, i1 false, i32 0, i32 0, null, i32 256, i1 false, null, null, i32 0, metadata !91, i32 1864} ; [ DW_TAG_subprogram ]
!917 = metadata !{i32 786453, i32 0, metadata !"", i32 0, i32 0, i64 0, i64 0, i64 0, i32 0, null, metadata !918, i32 0, i32 0} ; [ DW_TAG_subroutine_type ]
!918 = metadata !{metadata !721, metadata !845}
!919 = metadata !{i32 786478, i32 0, metadata !721, metadata !"operator!", metadata !"operator!", metadata !"_ZNK11ap_int_baseILi9ELb1ELb1EEntEv", metadata !79, i32 1870, metadata !847, i1 false, i1 false, i32 0, i32 0, null, i32 256, i1 false, null, null, i32 0, metadata !91, i32 1870} ; [ DW_TAG_subprogram ]
!920 = metadata !{i32 786478, i32 0, metadata !721, metadata !"operator-", metadata !"operator-", metadata !"_ZNK11ap_int_baseILi9ELb1ELb1EEngEv", metadata !79, i32 1875, metadata !921, i1 false, i1 false, i32 0, i32 0, null, i32 256, i1 false, null, null, i32 0, metadata !91, i32 1875} ; [ DW_TAG_subprogram ]
!921 = metadata !{i32 786453, i32 0, metadata !"", i32 0, i32 0, i64 0, i64 0, i64 0, i32 0, null, metadata !922, i32 0, i32 0} ; [ DW_TAG_subroutine_type ]
!922 = metadata !{metadata !923, metadata !845}
!923 = metadata !{i32 786434, null, metadata !"ap_int_base<10, true, true>", metadata !79, i32 650, i32 0, i32 0, i32 0, i32 4, null, null, i32 0} ; [ DW_TAG_class_type ]
!924 = metadata !{i32 786478, i32 0, metadata !721, metadata !"range", metadata !"range", metadata !"_ZN11ap_int_baseILi9ELb1ELb1EE5rangeEii", metadata !79, i32 2005, metadata !925, i1 false, i1 false, i32 0, i32 0, null, i32 256, i1 false, null, null, i32 0, metadata !91, i32 2005} ; [ DW_TAG_subprogram ]
!925 = metadata !{i32 786453, i32 0, metadata !"", i32 0, i32 0, i64 0, i64 0, i64 0, i32 0, null, metadata !926, i32 0, i32 0} ; [ DW_TAG_subroutine_type ]
!926 = metadata !{metadata !927, metadata !738, metadata !71, metadata !71}
!927 = metadata !{i32 786434, null, metadata !"ap_range_ref<9, true>", metadata !79, i32 923, i32 0, i32 0, i32 0, i32 4, null, null, i32 0} ; [ DW_TAG_class_type ]
!928 = metadata !{i32 786478, i32 0, metadata !721, metadata !"operator()", metadata !"operator()", metadata !"_ZN11ap_int_baseILi9ELb1ELb1EEclEii", metadata !79, i32 2011, metadata !925, i1 false, i1 false, i32 0, i32 0, null, i32 256, i1 false, null, null, i32 0, metadata !91, i32 2011} ; [ DW_TAG_subprogram ]
!929 = metadata !{i32 786478, i32 0, metadata !721, metadata !"range", metadata !"range", metadata !"_ZNK11ap_int_baseILi9ELb1ELb1EE5rangeEii", metadata !79, i32 2017, metadata !930, i1 false, i1 false, i32 0, i32 0, null, i32 256, i1 false, null, null, i32 0, metadata !91, i32 2017} ; [ DW_TAG_subprogram ]
!930 = metadata !{i32 786453, i32 0, metadata !"", i32 0, i32 0, i64 0, i64 0, i64 0, i32 0, null, metadata !931, i32 0, i32 0} ; [ DW_TAG_subroutine_type ]
!931 = metadata !{metadata !927, metadata !845, metadata !71, metadata !71}
!932 = metadata !{i32 786478, i32 0, metadata !721, metadata !"operator()", metadata !"operator()", metadata !"_ZNK11ap_int_baseILi9ELb1ELb1EEclEii", metadata !79, i32 2023, metadata !930, i1 false, i1 false, i32 0, i32 0, null, i32 256, i1 false, null, null, i32 0, metadata !91, i32 2023} ; [ DW_TAG_subprogram ]
!933 = metadata !{i32 786478, i32 0, metadata !721, metadata !"operator[]", metadata !"operator[]", metadata !"_ZN11ap_int_baseILi9ELb1ELb1EEixEi", metadata !79, i32 2042, metadata !934, i1 false, i1 false, i32 0, i32 0, null, i32 256, i1 false, null, null, i32 0, metadata !91, i32 2042} ; [ DW_TAG_subprogram ]
!934 = metadata !{i32 786453, i32 0, metadata !"", i32 0, i32 0, i64 0, i64 0, i64 0, i32 0, null, metadata !935, i32 0, i32 0} ; [ DW_TAG_subroutine_type ]
!935 = metadata !{metadata !936, metadata !738, metadata !71}
!936 = metadata !{i32 786434, null, metadata !"ap_bit_ref<9, true>", metadata !79, i32 1193, i64 128, i64 64, i32 0, i32 0, null, metadata !937, i32 0, null, metadata !970} ; [ DW_TAG_class_type ]
!937 = metadata !{metadata !938, metadata !939, metadata !940, metadata !946, metadata !950, metadata !954, metadata !955, metadata !959, metadata !962, metadata !963, metadata !966, metadata !967}
!938 = metadata !{i32 786445, metadata !936, metadata !"d_bv", metadata !79, i32 1194, i64 64, i64 64, i64 0, i32 0, metadata !803} ; [ DW_TAG_member ]
!939 = metadata !{i32 786445, metadata !936, metadata !"d_index", metadata !79, i32 1195, i64 32, i64 32, i64 64, i32 0, metadata !71} ; [ DW_TAG_member ]
!940 = metadata !{i32 786478, i32 0, metadata !936, metadata !"ap_bit_ref", metadata !"ap_bit_ref", metadata !"", metadata !79, i32 1198, metadata !941, i1 false, i1 false, i32 0, i32 0, null, i32 256, i1 false, null, null, i32 0, metadata !91, i32 1198} ; [ DW_TAG_subprogram ]
!941 = metadata !{i32 786453, i32 0, metadata !"", i32 0, i32 0, i64 0, i64 0, i64 0, i32 0, null, metadata !942, i32 0, i32 0} ; [ DW_TAG_subroutine_type ]
!942 = metadata !{null, metadata !943, metadata !944}
!943 = metadata !{i32 786447, i32 0, metadata !"", i32 0, i32 0, i64 64, i64 64, i64 0, i32 64, metadata !936} ; [ DW_TAG_pointer_type ]
!944 = metadata !{i32 786448, null, null, null, i32 0, i64 0, i64 0, i64 0, i32 0, metadata !945} ; [ DW_TAG_reference_type ]
!945 = metadata !{i32 786470, null, metadata !"", null, i32 0, i64 0, i64 0, i64 0, i32 0, metadata !936} ; [ DW_TAG_const_type ]
!946 = metadata !{i32 786478, i32 0, metadata !936, metadata !"ap_bit_ref", metadata !"ap_bit_ref", metadata !"", metadata !79, i32 1201, metadata !947, i1 false, i1 false, i32 0, i32 0, null, i32 256, i1 false, null, null, i32 0, metadata !91, i32 1201} ; [ DW_TAG_subprogram ]
!947 = metadata !{i32 786453, i32 0, metadata !"", i32 0, i32 0, i64 0, i64 0, i64 0, i32 0, null, metadata !948, i32 0, i32 0} ; [ DW_TAG_subroutine_type ]
!948 = metadata !{null, metadata !943, metadata !949, metadata !71}
!949 = metadata !{i32 786447, null, metadata !"", null, i32 0, i64 64, i64 64, i64 0, i32 0, metadata !721} ; [ DW_TAG_pointer_type ]
!950 = metadata !{i32 786478, i32 0, metadata !936, metadata !"operator _Bool", metadata !"operator _Bool", metadata !"_ZNK10ap_bit_refILi9ELb1EEcvbEv", metadata !79, i32 1203, metadata !951, i1 false, i1 false, i32 0, i32 0, null, i32 256, i1 false, null, null, i32 0, metadata !91, i32 1203} ; [ DW_TAG_subprogram ]
!951 = metadata !{i32 786453, i32 0, metadata !"", i32 0, i32 0, i64 0, i64 0, i64 0, i32 0, null, metadata !952, i32 0, i32 0} ; [ DW_TAG_subroutine_type ]
!952 = metadata !{metadata !101, metadata !953}
!953 = metadata !{i32 786447, i32 0, metadata !"", i32 0, i32 0, i64 64, i64 64, i64 0, i32 64, metadata !945} ; [ DW_TAG_pointer_type ]
!954 = metadata !{i32 786478, i32 0, metadata !936, metadata !"to_bool", metadata !"to_bool", metadata !"_ZNK10ap_bit_refILi9ELb1EE7to_boolEv", metadata !79, i32 1204, metadata !951, i1 false, i1 false, i32 0, i32 0, null, i32 256, i1 false, null, null, i32 0, metadata !91, i32 1204} ; [ DW_TAG_subprogram ]
!955 = metadata !{i32 786478, i32 0, metadata !936, metadata !"operator=", metadata !"operator=", metadata !"_ZN10ap_bit_refILi9ELb1EEaSEy", metadata !79, i32 1206, metadata !956, i1 false, i1 false, i32 0, i32 0, null, i32 256, i1 false, null, null, i32 0, metadata !91, i32 1206} ; [ DW_TAG_subprogram ]
!956 = metadata !{i32 786453, i32 0, metadata !"", i32 0, i32 0, i64 0, i64 0, i64 0, i32 0, null, metadata !957, i32 0, i32 0} ; [ DW_TAG_subroutine_type ]
!957 = metadata !{metadata !958, metadata !943, metadata !163}
!958 = metadata !{i32 786448, null, null, null, i32 0, i64 0, i64 0, i64 0, i32 0, metadata !936} ; [ DW_TAG_reference_type ]
!959 = metadata !{i32 786478, i32 0, metadata !936, metadata !"operator=", metadata !"operator=", metadata !"_ZN10ap_bit_refILi9ELb1EEaSERKS0_", metadata !79, i32 1226, metadata !960, i1 false, i1 false, i32 0, i32 0, null, i32 256, i1 false, null, null, i32 0, metadata !91, i32 1226} ; [ DW_TAG_subprogram ]
!960 = metadata !{i32 786453, i32 0, metadata !"", i32 0, i32 0, i64 0, i64 0, i64 0, i32 0, null, metadata !961, i32 0, i32 0} ; [ DW_TAG_subroutine_type ]
!961 = metadata !{metadata !958, metadata !943, metadata !944}
!962 = metadata !{i32 786478, i32 0, metadata !936, metadata !"get", metadata !"get", metadata !"_ZNK10ap_bit_refILi9ELb1EE3getEv", metadata !79, i32 1334, metadata !951, i1 false, i1 false, i32 0, i32 0, null, i32 256, i1 false, null, null, i32 0, metadata !91, i32 1334} ; [ DW_TAG_subprogram ]
!963 = metadata !{i32 786478, i32 0, metadata !936, metadata !"get", metadata !"get", metadata !"_ZN10ap_bit_refILi9ELb1EE3getEv", metadata !79, i32 1338, metadata !964, i1 false, i1 false, i32 0, i32 0, null, i32 256, i1 false, null, null, i32 0, metadata !91, i32 1338} ; [ DW_TAG_subprogram ]
!964 = metadata !{i32 786453, i32 0, metadata !"", i32 0, i32 0, i64 0, i64 0, i64 0, i32 0, null, metadata !965, i32 0, i32 0} ; [ DW_TAG_subroutine_type ]
!965 = metadata !{metadata !101, metadata !943}
!966 = metadata !{i32 786478, i32 0, metadata !936, metadata !"operator~", metadata !"operator~", metadata !"_ZNK10ap_bit_refILi9ELb1EEcoEv", metadata !79, i32 1347, metadata !951, i1 false, i1 false, i32 0, i32 0, null, i32 256, i1 false, null, null, i32 0, metadata !91, i32 1347} ; [ DW_TAG_subprogram ]
!967 = metadata !{i32 786478, i32 0, metadata !936, metadata !"length", metadata !"length", metadata !"_ZNK10ap_bit_refILi9ELb1EE6lengthEv", metadata !79, i32 1352, metadata !968, i1 false, i1 false, i32 0, i32 0, null, i32 256, i1 false, null, null, i32 0, metadata !91, i32 1352} ; [ DW_TAG_subprogram ]
!968 = metadata !{i32 786453, i32 0, metadata !"", i32 0, i32 0, i64 0, i64 0, i64 0, i32 0, null, metadata !969, i32 0, i32 0} ; [ DW_TAG_subroutine_type ]
!969 = metadata !{metadata !71, metadata !953}
!970 = metadata !{metadata !971, metadata !734}
!971 = metadata !{i32 786480, null, metadata !"_AP_W", metadata !71, i64 9, null, i32 0, i32 0} ; [ DW_TAG_template_value_parameter ]
!972 = metadata !{i32 786478, i32 0, metadata !721, metadata !"operator[]", metadata !"operator[]", metadata !"_ZNK11ap_int_baseILi9ELb1ELb1EEixEi", metadata !79, i32 2056, metadata !896, i1 false, i1 false, i32 0, i32 0, null, i32 256, i1 false, null, null, i32 0, metadata !91, i32 2056} ; [ DW_TAG_subprogram ]
!973 = metadata !{i32 786478, i32 0, metadata !721, metadata !"bit", metadata !"bit", metadata !"_ZN11ap_int_baseILi9ELb1ELb1EE3bitEi", metadata !79, i32 2070, metadata !934, i1 false, i1 false, i32 0, i32 0, null, i32 256, i1 false, null, null, i32 0, metadata !91, i32 2070} ; [ DW_TAG_subprogram ]
!974 = metadata !{i32 786478, i32 0, metadata !721, metadata !"bit", metadata !"bit", metadata !"_ZNK11ap_int_baseILi9ELb1ELb1EE3bitEi", metadata !79, i32 2084, metadata !896, i1 false, i1 false, i32 0, i32 0, null, i32 256, i1 false, null, null, i32 0, metadata !91, i32 2084} ; [ DW_TAG_subprogram ]
!975 = metadata !{i32 786478, i32 0, metadata !721, metadata !"and_reduce", metadata !"and_reduce", metadata !"_ZN11ap_int_baseILi9ELb1ELb1EE10and_reduceEv", metadata !79, i32 2264, metadata !976, i1 false, i1 false, i32 0, i32 0, null, i32 256, i1 false, null, null, i32 0, metadata !91, i32 2264} ; [ DW_TAG_subprogram ]
!976 = metadata !{i32 786453, i32 0, metadata !"", i32 0, i32 0, i64 0, i64 0, i64 0, i32 0, null, metadata !977, i32 0, i32 0} ; [ DW_TAG_subroutine_type ]
!977 = metadata !{metadata !101, metadata !738}
!978 = metadata !{i32 786478, i32 0, metadata !721, metadata !"nand_reduce", metadata !"nand_reduce", metadata !"_ZN11ap_int_baseILi9ELb1ELb1EE11nand_reduceEv", metadata !79, i32 2267, metadata !976, i1 false, i1 false, i32 0, i32 0, null, i32 256, i1 false, null, null, i32 0, metadata !91, i32 2267} ; [ DW_TAG_subprogram ]
!979 = metadata !{i32 786478, i32 0, metadata !721, metadata !"or_reduce", metadata !"or_reduce", metadata !"_ZN11ap_int_baseILi9ELb1ELb1EE9or_reduceEv", metadata !79, i32 2270, metadata !976, i1 false, i1 false, i32 0, i32 0, null, i32 256, i1 false, null, null, i32 0, metadata !91, i32 2270} ; [ DW_TAG_subprogram ]
!980 = metadata !{i32 786478, i32 0, metadata !721, metadata !"nor_reduce", metadata !"nor_reduce", metadata !"_ZN11ap_int_baseILi9ELb1ELb1EE10nor_reduceEv", metadata !79, i32 2273, metadata !976, i1 false, i1 false, i32 0, i32 0, null, i32 256, i1 false, null, null, i32 0, metadata !91, i32 2273} ; [ DW_TAG_subprogram ]
!981 = metadata !{i32 786478, i32 0, metadata !721, metadata !"xor_reduce", metadata !"xor_reduce", metadata !"_ZN11ap_int_baseILi9ELb1ELb1EE10xor_reduceEv", metadata !79, i32 2276, metadata !976, i1 false, i1 false, i32 0, i32 0, null, i32 256, i1 false, null, null, i32 0, metadata !91, i32 2276} ; [ DW_TAG_subprogram ]
!982 = metadata !{i32 786478, i32 0, metadata !721, metadata !"xnor_reduce", metadata !"xnor_reduce", metadata !"_ZN11ap_int_baseILi9ELb1ELb1EE11xnor_reduceEv", metadata !79, i32 2279, metadata !976, i1 false, i1 false, i32 0, i32 0, null, i32 256, i1 false, null, null, i32 0, metadata !91, i32 2279} ; [ DW_TAG_subprogram ]
!983 = metadata !{i32 786478, i32 0, metadata !721, metadata !"and_reduce", metadata !"and_reduce", metadata !"_ZNK11ap_int_baseILi9ELb1ELb1EE10and_reduceEv", metadata !79, i32 2283, metadata !847, i1 false, i1 false, i32 0, i32 0, null, i32 256, i1 false, null, null, i32 0, metadata !91, i32 2283} ; [ DW_TAG_subprogram ]
!984 = metadata !{i32 786478, i32 0, metadata !721, metadata !"nand_reduce", metadata !"nand_reduce", metadata !"_ZNK11ap_int_baseILi9ELb1ELb1EE11nand_reduceEv", metadata !79, i32 2286, metadata !847, i1 false, i1 false, i32 0, i32 0, null, i32 256, i1 false, null, null, i32 0, metadata !91, i32 2286} ; [ DW_TAG_subprogram ]
!985 = metadata !{i32 786478, i32 0, metadata !721, metadata !"or_reduce", metadata !"or_reduce", metadata !"_ZNK11ap_int_baseILi9ELb1ELb1EE9or_reduceEv", metadata !79, i32 2289, metadata !847, i1 false, i1 false, i32 0, i32 0, null, i32 256, i1 false, null, null, i32 0, metadata !91, i32 2289} ; [ DW_TAG_subprogram ]
!986 = metadata !{i32 786478, i32 0, metadata !721, metadata !"nor_reduce", metadata !"nor_reduce", metadata !"_ZNK11ap_int_baseILi9ELb1ELb1EE10nor_reduceEv", metadata !79, i32 2292, metadata !847, i1 false, i1 false, i32 0, i32 0, null, i32 256, i1 false, null, null, i32 0, metadata !91, i32 2292} ; [ DW_TAG_subprogram ]
!987 = metadata !{i32 786478, i32 0, metadata !721, metadata !"xor_reduce", metadata !"xor_reduce", metadata !"_ZNK11ap_int_baseILi9ELb1ELb1EE10xor_reduceEv", metadata !79, i32 2295, metadata !847, i1 false, i1 false, i32 0, i32 0, null, i32 256, i1 false, null, null, i32 0, metadata !91, i32 2295} ; [ DW_TAG_subprogram ]
!988 = metadata !{i32 786478, i32 0, metadata !721, metadata !"xnor_reduce", metadata !"xnor_reduce", metadata !"_ZNK11ap_int_baseILi9ELb1ELb1EE11xnor_reduceEv", metadata !79, i32 2298, metadata !847, i1 false, i1 false, i32 0, i32 0, null, i32 256, i1 false, null, null, i32 0, metadata !91, i32 2298} ; [ DW_TAG_subprogram ]
!989 = metadata !{i32 786478, i32 0, metadata !721, metadata !"to_string", metadata !"to_string", metadata !"_ZNK11ap_int_baseILi9ELb1ELb1EE9to_stringEPci8BaseModeb", metadata !79, i32 2305, metadata !990, i1 false, i1 false, i32 0, i32 0, null, i32 256, i1 false, null, null, i32 0, metadata !91, i32 2305} ; [ DW_TAG_subprogram ]
!990 = metadata !{i32 786453, i32 0, metadata !"", i32 0, i32 0, i64 0, i64 0, i64 0, i32 0, null, metadata !991, i32 0, i32 0} ; [ DW_TAG_subroutine_type ]
!991 = metadata !{null, metadata !845, metadata !410, metadata !71, metadata !411, metadata !101}
!992 = metadata !{i32 786478, i32 0, metadata !721, metadata !"to_string", metadata !"to_string", metadata !"_ZNK11ap_int_baseILi9ELb1ELb1EE9to_stringE8BaseModeb", metadata !79, i32 2332, metadata !993, i1 false, i1 false, i32 0, i32 0, null, i32 256, i1 false, null, null, i32 0, metadata !91, i32 2332} ; [ DW_TAG_subprogram ]
!993 = metadata !{i32 786453, i32 0, metadata !"", i32 0, i32 0, i64 0, i64 0, i64 0, i32 0, null, metadata !994, i32 0, i32 0} ; [ DW_TAG_subroutine_type ]
!994 = metadata !{metadata !410, metadata !845, metadata !411, metadata !101}
!995 = metadata !{i32 786478, i32 0, metadata !721, metadata !"to_string", metadata !"to_string", metadata !"_ZNK11ap_int_baseILi9ELb1ELb1EE9to_stringEab", metadata !79, i32 2336, metadata !996, i1 false, i1 false, i32 0, i32 0, null, i32 256, i1 false, null, null, i32 0, metadata !91, i32 2336} ; [ DW_TAG_subprogram ]
!996 = metadata !{i32 786453, i32 0, metadata !"", i32 0, i32 0, i64 0, i64 0, i64 0, i32 0, null, metadata !997, i32 0, i32 0} ; [ DW_TAG_subroutine_type ]
!997 = metadata !{metadata !410, metadata !845, metadata !126, metadata !101}
!998 = metadata !{metadata !971, metadata !734, metadata !999}
!999 = metadata !{i32 786480, null, metadata !"_AP_C", metadata !101, i64 1, null, i32 0, i32 0} ; [ DW_TAG_template_value_parameter ]
!1000 = metadata !{i32 786478, i32 0, metadata !522, metadata !"range", metadata !"range", metadata !"_ZN11ap_int_baseILi8ELb0ELb1EE5rangeEii", metadata !79, i32 2005, metadata !1001, i1 false, i1 false, i32 0, i32 0, null, i32 256, i1 false, null, null, i32 0, metadata !91, i32 2005} ; [ DW_TAG_subprogram ]
!1001 = metadata !{i32 786453, i32 0, metadata !"", i32 0, i32 0, i64 0, i64 0, i64 0, i32 0, null, metadata !1002, i32 0, i32 0} ; [ DW_TAG_subroutine_type ]
!1002 = metadata !{metadata !1003, metadata !536, metadata !71, metadata !71}
!1003 = metadata !{i32 786434, null, metadata !"ap_range_ref<8, false>", metadata !79, i32 923, i32 0, i32 0, i32 0, i32 4, null, null, i32 0} ; [ DW_TAG_class_type ]
!1004 = metadata !{i32 786478, i32 0, metadata !522, metadata !"operator()", metadata !"operator()", metadata !"_ZN11ap_int_baseILi8ELb0ELb1EEclEii", metadata !79, i32 2011, metadata !1001, i1 false, i1 false, i32 0, i32 0, null, i32 256, i1 false, null, null, i32 0, metadata !91, i32 2011} ; [ DW_TAG_subprogram ]
!1005 = metadata !{i32 786478, i32 0, metadata !522, metadata !"range", metadata !"range", metadata !"_ZNK11ap_int_baseILi8ELb0ELb1EE5rangeEii", metadata !79, i32 2017, metadata !1006, i1 false, i1 false, i32 0, i32 0, null, i32 256, i1 false, null, null, i32 0, metadata !91, i32 2017} ; [ DW_TAG_subprogram ]
!1006 = metadata !{i32 786453, i32 0, metadata !"", i32 0, i32 0, i64 0, i64 0, i64 0, i32 0, null, metadata !1007, i32 0, i32 0} ; [ DW_TAG_subroutine_type ]
!1007 = metadata !{metadata !1003, metadata !643, metadata !71, metadata !71}
!1008 = metadata !{i32 786478, i32 0, metadata !522, metadata !"operator()", metadata !"operator()", metadata !"_ZNK11ap_int_baseILi8ELb0ELb1EEclEii", metadata !79, i32 2023, metadata !1006, i1 false, i1 false, i32 0, i32 0, null, i32 256, i1 false, null, null, i32 0, metadata !91, i32 2023} ; [ DW_TAG_subprogram ]
!1009 = metadata !{i32 786478, i32 0, metadata !522, metadata !"operator[]", metadata !"operator[]", metadata !"_ZN11ap_int_baseILi8ELb0ELb1EEixEi", metadata !79, i32 2042, metadata !1010, i1 false, i1 false, i32 0, i32 0, null, i32 256, i1 false, null, null, i32 0, metadata !91, i32 2042} ; [ DW_TAG_subprogram ]
!1010 = metadata !{i32 786453, i32 0, metadata !"", i32 0, i32 0, i64 0, i64 0, i64 0, i32 0, null, metadata !1011, i32 0, i32 0} ; [ DW_TAG_subroutine_type ]
!1011 = metadata !{metadata !1012, metadata !536, metadata !71}
!1012 = metadata !{i32 786434, null, metadata !"ap_bit_ref<8, false>", metadata !79, i32 1193, i32 0, i32 0, i32 0, i32 4, null, null, i32 0} ; [ DW_TAG_class_type ]
!1013 = metadata !{i32 786478, i32 0, metadata !522, metadata !"operator[]", metadata !"operator[]", metadata !"_ZNK11ap_int_baseILi8ELb0ELb1EEixEi", metadata !79, i32 2056, metadata !694, i1 false, i1 false, i32 0, i32 0, null, i32 256, i1 false, null, null, i32 0, metadata !91, i32 2056} ; [ DW_TAG_subprogram ]
!1014 = metadata !{i32 786478, i32 0, metadata !522, metadata !"bit", metadata !"bit", metadata !"_ZN11ap_int_baseILi8ELb0ELb1EE3bitEi", metadata !79, i32 2070, metadata !1010, i1 false, i1 false, i32 0, i32 0, null, i32 256, i1 false, null, null, i32 0, metadata !91, i32 2070} ; [ DW_TAG_subprogram ]
!1015 = metadata !{i32 786478, i32 0, metadata !522, metadata !"bit", metadata !"bit", metadata !"_ZNK11ap_int_baseILi8ELb0ELb1EE3bitEi", metadata !79, i32 2084, metadata !694, i1 false, i1 false, i32 0, i32 0, null, i32 256, i1 false, null, null, i32 0, metadata !91, i32 2084} ; [ DW_TAG_subprogram ]
!1016 = metadata !{i32 786478, i32 0, metadata !522, metadata !"and_reduce", metadata !"and_reduce", metadata !"_ZN11ap_int_baseILi8ELb0ELb1EE10and_reduceEv", metadata !79, i32 2264, metadata !1017, i1 false, i1 false, i32 0, i32 0, null, i32 256, i1 false, null, null, i32 0, metadata !91, i32 2264} ; [ DW_TAG_subprogram ]
!1017 = metadata !{i32 786453, i32 0, metadata !"", i32 0, i32 0, i64 0, i64 0, i64 0, i32 0, null, metadata !1018, i32 0, i32 0} ; [ DW_TAG_subroutine_type ]
!1018 = metadata !{metadata !101, metadata !536}
!1019 = metadata !{i32 786478, i32 0, metadata !522, metadata !"nand_reduce", metadata !"nand_reduce", metadata !"_ZN11ap_int_baseILi8ELb0ELb1EE11nand_reduceEv", metadata !79, i32 2267, metadata !1017, i1 false, i1 false, i32 0, i32 0, null, i32 256, i1 false, null, null, i32 0, metadata !91, i32 2267} ; [ DW_TAG_subprogram ]
!1020 = metadata !{i32 786478, i32 0, metadata !522, metadata !"or_reduce", metadata !"or_reduce", metadata !"_ZN11ap_int_baseILi8ELb0ELb1EE9or_reduceEv", metadata !79, i32 2270, metadata !1017, i1 false, i1 false, i32 0, i32 0, null, i32 256, i1 false, null, null, i32 0, metadata !91, i32 2270} ; [ DW_TAG_subprogram ]
!1021 = metadata !{i32 786478, i32 0, metadata !522, metadata !"nor_reduce", metadata !"nor_reduce", metadata !"_ZN11ap_int_baseILi8ELb0ELb1EE10nor_reduceEv", metadata !79, i32 2273, metadata !1017, i1 false, i1 false, i32 0, i32 0, null, i32 256, i1 false, null, null, i32 0, metadata !91, i32 2273} ; [ DW_TAG_subprogram ]
!1022 = metadata !{i32 786478, i32 0, metadata !522, metadata !"xor_reduce", metadata !"xor_reduce", metadata !"_ZN11ap_int_baseILi8ELb0ELb1EE10xor_reduceEv", metadata !79, i32 2276, metadata !1017, i1 false, i1 false, i32 0, i32 0, null, i32 256, i1 false, null, null, i32 0, metadata !91, i32 2276} ; [ DW_TAG_subprogram ]
!1023 = metadata !{i32 786478, i32 0, metadata !522, metadata !"xnor_reduce", metadata !"xnor_reduce", metadata !"_ZN11ap_int_baseILi8ELb0ELb1EE11xnor_reduceEv", metadata !79, i32 2279, metadata !1017, i1 false, i1 false, i32 0, i32 0, null, i32 256, i1 false, null, null, i32 0, metadata !91, i32 2279} ; [ DW_TAG_subprogram ]
!1024 = metadata !{i32 786478, i32 0, metadata !522, metadata !"and_reduce", metadata !"and_reduce", metadata !"_ZNK11ap_int_baseILi8ELb0ELb1EE10and_reduceEv", metadata !79, i32 2283, metadata !645, i1 false, i1 false, i32 0, i32 0, null, i32 256, i1 false, null, null, i32 0, metadata !91, i32 2283} ; [ DW_TAG_subprogram ]
!1025 = metadata !{i32 786478, i32 0, metadata !522, metadata !"nand_reduce", metadata !"nand_reduce", metadata !"_ZNK11ap_int_baseILi8ELb0ELb1EE11nand_reduceEv", metadata !79, i32 2286, metadata !645, i1 false, i1 false, i32 0, i32 0, null, i32 256, i1 false, null, null, i32 0, metadata !91, i32 2286} ; [ DW_TAG_subprogram ]
!1026 = metadata !{i32 786478, i32 0, metadata !522, metadata !"or_reduce", metadata !"or_reduce", metadata !"_ZNK11ap_int_baseILi8ELb0ELb1EE9or_reduceEv", metadata !79, i32 2289, metadata !645, i1 false, i1 false, i32 0, i32 0, null, i32 256, i1 false, null, null, i32 0, metadata !91, i32 2289} ; [ DW_TAG_subprogram ]
!1027 = metadata !{i32 786478, i32 0, metadata !522, metadata !"nor_reduce", metadata !"nor_reduce", metadata !"_ZNK11ap_int_baseILi8ELb0ELb1EE10nor_reduceEv", metadata !79, i32 2292, metadata !645, i1 false, i1 false, i32 0, i32 0, null, i32 256, i1 false, null, null, i32 0, metadata !91, i32 2292} ; [ DW_TAG_subprogram ]
!1028 = metadata !{i32 786478, i32 0, metadata !522, metadata !"xor_reduce", metadata !"xor_reduce", metadata !"_ZNK11ap_int_baseILi8ELb0ELb1EE10xor_reduceEv", metadata !79, i32 2295, metadata !645, i1 false, i1 false, i32 0, i32 0, null, i32 256, i1 false, null, null, i32 0, metadata !91, i32 2295} ; [ DW_TAG_subprogram ]
!1029 = metadata !{i32 786478, i32 0, metadata !522, metadata !"xnor_reduce", metadata !"xnor_reduce", metadata !"_ZNK11ap_int_baseILi8ELb0ELb1EE11xnor_reduceEv", metadata !79, i32 2298, metadata !645, i1 false, i1 false, i32 0, i32 0, null, i32 256, i1 false, null, null, i32 0, metadata !91, i32 2298} ; [ DW_TAG_subprogram ]
!1030 = metadata !{i32 786478, i32 0, metadata !522, metadata !"to_string", metadata !"to_string", metadata !"_ZNK11ap_int_baseILi8ELb0ELb1EE9to_stringEPci8BaseModeb", metadata !79, i32 2305, metadata !1031, i1 false, i1 false, i32 0, i32 0, null, i32 256, i1 false, null, null, i32 0, metadata !91, i32 2305} ; [ DW_TAG_subprogram ]
!1031 = metadata !{i32 786453, i32 0, metadata !"", i32 0, i32 0, i64 0, i64 0, i64 0, i32 0, null, metadata !1032, i32 0, i32 0} ; [ DW_TAG_subroutine_type ]
!1032 = metadata !{null, metadata !643, metadata !410, metadata !71, metadata !411, metadata !101}
!1033 = metadata !{i32 786478, i32 0, metadata !522, metadata !"to_string", metadata !"to_string", metadata !"_ZNK11ap_int_baseILi8ELb0ELb1EE9to_stringE8BaseModeb", metadata !79, i32 2332, metadata !1034, i1 false, i1 false, i32 0, i32 0, null, i32 256, i1 false, null, null, i32 0, metadata !91, i32 2332} ; [ DW_TAG_subprogram ]
!1034 = metadata !{i32 786453, i32 0, metadata !"", i32 0, i32 0, i64 0, i64 0, i64 0, i32 0, null, metadata !1035, i32 0, i32 0} ; [ DW_TAG_subroutine_type ]
!1035 = metadata !{metadata !410, metadata !643, metadata !411, metadata !101}
!1036 = metadata !{i32 786478, i32 0, metadata !522, metadata !"to_string", metadata !"to_string", metadata !"_ZNK11ap_int_baseILi8ELb0ELb1EE9to_stringEab", metadata !79, i32 2336, metadata !1037, i1 false, i1 false, i32 0, i32 0, null, i32 256, i1 false, null, null, i32 0, metadata !91, i32 2336} ; [ DW_TAG_subprogram ]
!1037 = metadata !{i32 786453, i32 0, metadata !"", i32 0, i32 0, i64 0, i64 0, i64 0, i32 0, null, metadata !1038, i32 0, i32 0} ; [ DW_TAG_subroutine_type ]
!1038 = metadata !{metadata !410, metadata !643, metadata !126, metadata !101}
!1039 = metadata !{metadata !1040, metadata !100, metadata !999}
!1040 = metadata !{i32 786480, null, metadata !"_AP_W", metadata !71, i64 8, null, i32 0, i32 0} ; [ DW_TAG_template_value_parameter ]
!1041 = metadata !{i32 786478, i32 0, metadata !519, metadata !"ap_uint", metadata !"ap_uint", metadata !"", metadata !75, i32 183, metadata !1042, i1 false, i1 false, i32 0, i32 0, null, i32 256, i1 false, null, null, i32 0, metadata !91, i32 183} ; [ DW_TAG_subprogram ]
!1042 = metadata !{i32 786453, i32 0, metadata !"", i32 0, i32 0, i64 0, i64 0, i64 0, i32 0, null, metadata !1043, i32 0, i32 0} ; [ DW_TAG_subroutine_type ]
!1043 = metadata !{null, metadata !1044}
!1044 = metadata !{i32 786447, i32 0, metadata !"", i32 0, i32 0, i64 64, i64 64, i64 0, i32 64, metadata !519} ; [ DW_TAG_pointer_type ]
!1045 = metadata !{i32 786478, i32 0, metadata !519, metadata !"ap_uint", metadata !"ap_uint", metadata !"", metadata !75, i32 245, metadata !1046, i1 false, i1 false, i32 0, i32 0, null, i32 256, i1 false, null, null, i32 0, metadata !91, i32 245} ; [ DW_TAG_subprogram ]
!1046 = metadata !{i32 786453, i32 0, metadata !"", i32 0, i32 0, i64 0, i64 0, i64 0, i32 0, null, metadata !1047, i32 0, i32 0} ; [ DW_TAG_subroutine_type ]
!1047 = metadata !{null, metadata !1044, metadata !101}
!1048 = metadata !{i32 786478, i32 0, metadata !519, metadata !"ap_uint", metadata !"ap_uint", metadata !"", metadata !75, i32 246, metadata !1049, i1 false, i1 false, i32 0, i32 0, null, i32 256, i1 false, null, null, i32 0, metadata !91, i32 246} ; [ DW_TAG_subprogram ]
!1049 = metadata !{i32 786453, i32 0, metadata !"", i32 0, i32 0, i64 0, i64 0, i64 0, i32 0, null, metadata !1050, i32 0, i32 0} ; [ DW_TAG_subroutine_type ]
!1050 = metadata !{null, metadata !1044, metadata !126}
!1051 = metadata !{i32 786478, i32 0, metadata !519, metadata !"ap_uint", metadata !"ap_uint", metadata !"", metadata !75, i32 247, metadata !1052, i1 false, i1 false, i32 0, i32 0, null, i32 256, i1 false, null, null, i32 0, metadata !91, i32 247} ; [ DW_TAG_subprogram ]
!1052 = metadata !{i32 786453, i32 0, metadata !"", i32 0, i32 0, i64 0, i64 0, i64 0, i32 0, null, metadata !1053, i32 0, i32 0} ; [ DW_TAG_subroutine_type ]
!1053 = metadata !{null, metadata !1044, metadata !130}
!1054 = metadata !{i32 786478, i32 0, metadata !519, metadata !"ap_uint", metadata !"ap_uint", metadata !"", metadata !75, i32 248, metadata !1055, i1 false, i1 false, i32 0, i32 0, null, i32 256, i1 false, null, null, i32 0, metadata !91, i32 248} ; [ DW_TAG_subprogram ]
!1055 = metadata !{i32 786453, i32 0, metadata !"", i32 0, i32 0, i64 0, i64 0, i64 0, i32 0, null, metadata !1056, i32 0, i32 0} ; [ DW_TAG_subroutine_type ]
!1056 = metadata !{null, metadata !1044, metadata !134}
!1057 = metadata !{i32 786478, i32 0, metadata !519, metadata !"ap_uint", metadata !"ap_uint", metadata !"", metadata !75, i32 249, metadata !1058, i1 false, i1 false, i32 0, i32 0, null, i32 256, i1 false, null, null, i32 0, metadata !91, i32 249} ; [ DW_TAG_subprogram ]
!1058 = metadata !{i32 786453, i32 0, metadata !"", i32 0, i32 0, i64 0, i64 0, i64 0, i32 0, null, metadata !1059, i32 0, i32 0} ; [ DW_TAG_subroutine_type ]
!1059 = metadata !{null, metadata !1044, metadata !138}
!1060 = metadata !{i32 786478, i32 0, metadata !519, metadata !"ap_uint", metadata !"ap_uint", metadata !"", metadata !75, i32 250, metadata !1061, i1 false, i1 false, i32 0, i32 0, null, i32 256, i1 false, null, null, i32 0, metadata !91, i32 250} ; [ DW_TAG_subprogram ]
!1061 = metadata !{i32 786453, i32 0, metadata !"", i32 0, i32 0, i64 0, i64 0, i64 0, i32 0, null, metadata !1062, i32 0, i32 0} ; [ DW_TAG_subroutine_type ]
!1062 = metadata !{null, metadata !1044, metadata !71}
!1063 = metadata !{i32 786478, i32 0, metadata !519, metadata !"ap_uint", metadata !"ap_uint", metadata !"", metadata !75, i32 251, metadata !1064, i1 false, i1 false, i32 0, i32 0, null, i32 256, i1 false, null, null, i32 0, metadata !91, i32 251} ; [ DW_TAG_subprogram ]
!1064 = metadata !{i32 786453, i32 0, metadata !"", i32 0, i32 0, i64 0, i64 0, i64 0, i32 0, null, metadata !1065, i32 0, i32 0} ; [ DW_TAG_subroutine_type ]
!1065 = metadata !{null, metadata !1044, metadata !145}
!1066 = metadata !{i32 786478, i32 0, metadata !519, metadata !"ap_uint", metadata !"ap_uint", metadata !"", metadata !75, i32 252, metadata !1067, i1 false, i1 false, i32 0, i32 0, null, i32 256, i1 false, null, null, i32 0, metadata !91, i32 252} ; [ DW_TAG_subprogram ]
!1067 = metadata !{i32 786453, i32 0, metadata !"", i32 0, i32 0, i64 0, i64 0, i64 0, i32 0, null, metadata !1068, i32 0, i32 0} ; [ DW_TAG_subroutine_type ]
!1068 = metadata !{null, metadata !1044, metadata !149}
!1069 = metadata !{i32 786478, i32 0, metadata !519, metadata !"ap_uint", metadata !"ap_uint", metadata !"", metadata !75, i32 253, metadata !1070, i1 false, i1 false, i32 0, i32 0, null, i32 256, i1 false, null, null, i32 0, metadata !91, i32 253} ; [ DW_TAG_subprogram ]
!1070 = metadata !{i32 786453, i32 0, metadata !"", i32 0, i32 0, i64 0, i64 0, i64 0, i32 0, null, metadata !1071, i32 0, i32 0} ; [ DW_TAG_subroutine_type ]
!1071 = metadata !{null, metadata !1044, metadata !153}
!1072 = metadata !{i32 786478, i32 0, metadata !519, metadata !"ap_uint", metadata !"ap_uint", metadata !"", metadata !75, i32 254, metadata !1073, i1 false, i1 false, i32 0, i32 0, null, i32 256, i1 false, null, null, i32 0, metadata !91, i32 254} ; [ DW_TAG_subprogram ]
!1073 = metadata !{i32 786453, i32 0, metadata !"", i32 0, i32 0, i64 0, i64 0, i64 0, i32 0, null, metadata !1074, i32 0, i32 0} ; [ DW_TAG_subroutine_type ]
!1074 = metadata !{null, metadata !1044, metadata !163}
!1075 = metadata !{i32 786478, i32 0, metadata !519, metadata !"ap_uint", metadata !"ap_uint", metadata !"", metadata !75, i32 255, metadata !1076, i1 false, i1 false, i32 0, i32 0, null, i32 256, i1 false, null, null, i32 0, metadata !91, i32 255} ; [ DW_TAG_subprogram ]
!1076 = metadata !{i32 786453, i32 0, metadata !"", i32 0, i32 0, i64 0, i64 0, i64 0, i32 0, null, metadata !1077, i32 0, i32 0} ; [ DW_TAG_subroutine_type ]
!1077 = metadata !{null, metadata !1044, metadata !158}
!1078 = metadata !{i32 786478, i32 0, metadata !519, metadata !"ap_uint", metadata !"ap_uint", metadata !"", metadata !75, i32 256, metadata !1079, i1 false, i1 false, i32 0, i32 0, null, i32 256, i1 false, null, null, i32 0, metadata !91, i32 256} ; [ DW_TAG_subprogram ]
!1079 = metadata !{i32 786453, i32 0, metadata !"", i32 0, i32 0, i64 0, i64 0, i64 0, i32 0, null, metadata !1080, i32 0, i32 0} ; [ DW_TAG_subroutine_type ]
!1080 = metadata !{null, metadata !1044, metadata !167}
!1081 = metadata !{i32 786478, i32 0, metadata !519, metadata !"ap_uint", metadata !"ap_uint", metadata !"", metadata !75, i32 257, metadata !1082, i1 false, i1 false, i32 0, i32 0, null, i32 256, i1 false, null, null, i32 0, metadata !91, i32 257} ; [ DW_TAG_subprogram ]
!1082 = metadata !{i32 786453, i32 0, metadata !"", i32 0, i32 0, i64 0, i64 0, i64 0, i32 0, null, metadata !1083, i32 0, i32 0} ; [ DW_TAG_subroutine_type ]
!1083 = metadata !{null, metadata !1044, metadata !171}
!1084 = metadata !{i32 786478, i32 0, metadata !519, metadata !"ap_uint", metadata !"ap_uint", metadata !"", metadata !75, i32 259, metadata !1085, i1 false, i1 false, i32 0, i32 0, null, i32 256, i1 false, null, null, i32 0, metadata !91, i32 259} ; [ DW_TAG_subprogram ]
!1085 = metadata !{i32 786453, i32 0, metadata !"", i32 0, i32 0, i64 0, i64 0, i64 0, i32 0, null, metadata !1086, i32 0, i32 0} ; [ DW_TAG_subroutine_type ]
!1086 = metadata !{null, metadata !1044, metadata !175}
!1087 = metadata !{i32 786478, i32 0, metadata !519, metadata !"ap_uint", metadata !"ap_uint", metadata !"", metadata !75, i32 260, metadata !1088, i1 false, i1 false, i32 0, i32 0, null, i32 256, i1 false, null, null, i32 0, metadata !91, i32 260} ; [ DW_TAG_subprogram ]
!1088 = metadata !{i32 786453, i32 0, metadata !"", i32 0, i32 0, i64 0, i64 0, i64 0, i32 0, null, metadata !1089, i32 0, i32 0} ; [ DW_TAG_subroutine_type ]
!1089 = metadata !{null, metadata !1044, metadata !175, metadata !126}
!1090 = metadata !{i32 786478, i32 0, metadata !519, metadata !"operator=", metadata !"operator=", metadata !"_ZNV7ap_uintILi8EEaSERKS0_", metadata !75, i32 263, metadata !1091, i1 false, i1 false, i32 0, i32 0, null, i32 256, i1 false, null, null, i32 0, metadata !91, i32 263} ; [ DW_TAG_subprogram ]
!1091 = metadata !{i32 786453, i32 0, metadata !"", i32 0, i32 0, i64 0, i64 0, i64 0, i32 0, null, metadata !1092, i32 0, i32 0} ; [ DW_TAG_subroutine_type ]
!1092 = metadata !{null, metadata !1093, metadata !1095}
!1093 = metadata !{i32 786447, i32 0, metadata !"", i32 0, i32 0, i64 64, i64 64, i64 0, i32 64, metadata !1094} ; [ DW_TAG_pointer_type ]
!1094 = metadata !{i32 786485, null, metadata !"", null, i32 0, i64 0, i64 0, i64 0, i32 0, metadata !519} ; [ DW_TAG_volatile_type ]
!1095 = metadata !{i32 786448, null, null, null, i32 0, i64 0, i64 0, i64 0, i32 0, metadata !1096} ; [ DW_TAG_reference_type ]
!1096 = metadata !{i32 786470, null, metadata !"", null, i32 0, i64 0, i64 0, i64 0, i32 0, metadata !519} ; [ DW_TAG_const_type ]
!1097 = metadata !{i32 786478, i32 0, metadata !519, metadata !"operator=", metadata !"operator=", metadata !"_ZNV7ap_uintILi8EEaSERVKS0_", metadata !75, i32 267, metadata !1098, i1 false, i1 false, i32 0, i32 0, null, i32 256, i1 false, null, null, i32 0, metadata !91, i32 267} ; [ DW_TAG_subprogram ]
!1098 = metadata !{i32 786453, i32 0, metadata !"", i32 0, i32 0, i64 0, i64 0, i64 0, i32 0, null, metadata !1099, i32 0, i32 0} ; [ DW_TAG_subroutine_type ]
!1099 = metadata !{null, metadata !1093, metadata !1100}
!1100 = metadata !{i32 786448, null, null, null, i32 0, i64 0, i64 0, i64 0, i32 0, metadata !1101} ; [ DW_TAG_reference_type ]
!1101 = metadata !{i32 786470, null, metadata !"", null, i32 0, i64 0, i64 0, i64 0, i32 0, metadata !1094} ; [ DW_TAG_const_type ]
!1102 = metadata !{i32 786478, i32 0, metadata !519, metadata !"operator=", metadata !"operator=", metadata !"_ZN7ap_uintILi8EEaSERVKS0_", metadata !75, i32 271, metadata !1103, i1 false, i1 false, i32 0, i32 0, null, i32 256, i1 false, null, null, i32 0, metadata !91, i32 271} ; [ DW_TAG_subprogram ]
!1103 = metadata !{i32 786453, i32 0, metadata !"", i32 0, i32 0, i64 0, i64 0, i64 0, i32 0, null, metadata !1104, i32 0, i32 0} ; [ DW_TAG_subroutine_type ]
!1104 = metadata !{metadata !1105, metadata !1044, metadata !1100}
!1105 = metadata !{i32 786448, null, null, null, i32 0, i64 0, i64 0, i64 0, i32 0, metadata !519} ; [ DW_TAG_reference_type ]
!1106 = metadata !{i32 786478, i32 0, metadata !519, metadata !"operator=", metadata !"operator=", metadata !"_ZN7ap_uintILi8EEaSERKS0_", metadata !75, i32 276, metadata !1107, i1 false, i1 false, i32 0, i32 0, null, i32 256, i1 false, null, null, i32 0, metadata !91, i32 276} ; [ DW_TAG_subprogram ]
!1107 = metadata !{i32 786453, i32 0, metadata !"", i32 0, i32 0, i64 0, i64 0, i64 0, i32 0, null, metadata !1108, i32 0, i32 0} ; [ DW_TAG_subroutine_type ]
!1108 = metadata !{metadata !1105, metadata !1044, metadata !1095}
!1109 = metadata !{metadata !1040}
!1110 = metadata !{i32 786445, metadata !514, metadata !"flags", metadata !515, i32 66, i64 8, i64 8, i64 8, i32 0, metadata !518} ; [ DW_TAG_member ]
!1111 = metadata !{i32 786445, metadata !514, metadata !"seq", metadata !515, i32 67, i64 16, i64 16, i64 16, i32 0, metadata !1112} ; [ DW_TAG_member ]
!1112 = metadata !{i32 786454, null, metadata !"snapu16_t", metadata !515, i32 60, i64 0, i64 0, i64 0, i32 0, metadata !1113} ; [ DW_TAG_typedef ]
!1113 = metadata !{i32 786434, null, metadata !"ap_uint<16>", metadata !75, i32 180, i64 16, i64 16, i32 0, i32 0, null, metadata !1114, i32 0, null, metadata !1702} ; [ DW_TAG_class_type ]
!1114 = metadata !{metadata !1115, metadata !1634, metadata !1638, metadata !1641, metadata !1644, metadata !1647, metadata !1650, metadata !1653, metadata !1656, metadata !1659, metadata !1662, metadata !1665, metadata !1668, metadata !1671, metadata !1674, metadata !1677, metadata !1680, metadata !1683, metadata !1690, metadata !1695, metadata !1699}
!1115 = metadata !{i32 786460, metadata !1113, null, metadata !75, i32 0, i64 0, i64 0, i64 0, i32 0, metadata !1116} ; [ DW_TAG_inheritance ]
!1116 = metadata !{i32 786434, null, metadata !"ap_int_base<16, false, true>", metadata !79, i32 1397, i64 16, i64 16, i32 0, i32 0, null, metadata !1117, i32 0, null, metadata !1632} ; [ DW_TAG_class_type ]
!1117 = metadata !{metadata !1118, metadata !1129, metadata !1133, metadata !1136, metadata !1139, metadata !1142, metadata !1145, metadata !1148, metadata !1151, metadata !1154, metadata !1157, metadata !1160, metadata !1163, metadata !1166, metadata !1169, metadata !1172, metadata !1175, metadata !1178, metadata !1183, metadata !1188, metadata !1193, metadata !1194, metadata !1198, metadata !1201, metadata !1204, metadata !1207, metadata !1210, metadata !1213, metadata !1216, metadata !1219, metadata !1222, metadata !1225, metadata !1228, metadata !1231, metadata !1239, metadata !1242, metadata !1245, metadata !1248, metadata !1251, metadata !1254, metadata !1257, metadata !1260, metadata !1263, metadata !1266, metadata !1269, metadata !1272, metadata !1275, metadata !1276, metadata !1280, metadata !1283, metadata !1284, metadata !1285, metadata !1286, metadata !1287, metadata !1288, metadata !1291, metadata !1292, metadata !1295, metadata !1296, metadata !1297, metadata !1298, metadata !1299, metadata !1300, metadata !1303, metadata !1304, metadata !1305, metadata !1308, metadata !1309, metadata !1312, metadata !1313, metadata !1593, metadata !1597, metadata !1598, metadata !1601, metadata !1602, metadata !1606, metadata !1607, metadata !1608, metadata !1609, metadata !1612, metadata !1613, metadata !1614, metadata !1615, metadata !1616, metadata !1617, metadata !1618, metadata !1619, metadata !1620, metadata !1621, metadata !1622, metadata !1623, metadata !1626, metadata !1629}
!1118 = metadata !{i32 786460, metadata !1116, null, metadata !79, i32 0, i64 0, i64 0, i64 0, i32 0, metadata !1119} ; [ DW_TAG_inheritance ]
!1119 = metadata !{i32 786434, null, metadata !"ssdm_int<16 + 1024 * 0, false>", metadata !83, i32 18, i64 16, i64 16, i32 0, i32 0, null, metadata !1120, i32 0, null, metadata !1127} ; [ DW_TAG_class_type ]
!1120 = metadata !{metadata !1121, metadata !1123}
!1121 = metadata !{i32 786445, metadata !1119, metadata !"V", metadata !83, i32 18, i64 16, i64 16, i64 0, i32 0, metadata !1122} ; [ DW_TAG_member ]
!1122 = metadata !{i32 786468, null, metadata !"uint16", null, i32 0, i64 16, i64 16, i64 0, i32 0, i32 7} ; [ DW_TAG_base_type ]
!1123 = metadata !{i32 786478, i32 0, metadata !1119, metadata !"ssdm_int", metadata !"ssdm_int", metadata !"", metadata !83, i32 18, metadata !1124, i1 false, i1 false, i32 0, i32 0, null, i32 256, i1 false, null, null, i32 0, metadata !91, i32 18} ; [ DW_TAG_subprogram ]
!1124 = metadata !{i32 786453, i32 0, metadata !"", i32 0, i32 0, i64 0, i64 0, i64 0, i32 0, null, metadata !1125, i32 0, i32 0} ; [ DW_TAG_subroutine_type ]
!1125 = metadata !{null, metadata !1126}
!1126 = metadata !{i32 786447, i32 0, metadata !"", i32 0, i32 0, i64 64, i64 64, i64 0, i32 64, metadata !1119} ; [ DW_TAG_pointer_type ]
!1127 = metadata !{metadata !1128, metadata !100}
!1128 = metadata !{i32 786480, null, metadata !"_AP_N", metadata !71, i64 16, null, i32 0, i32 0} ; [ DW_TAG_template_value_parameter ]
!1129 = metadata !{i32 786478, i32 0, metadata !1116, metadata !"ap_int_base", metadata !"ap_int_base", metadata !"", metadata !79, i32 1438, metadata !1130, i1 false, i1 false, i32 0, i32 0, null, i32 256, i1 false, null, null, i32 0, metadata !91, i32 1438} ; [ DW_TAG_subprogram ]
!1130 = metadata !{i32 786453, i32 0, metadata !"", i32 0, i32 0, i64 0, i64 0, i64 0, i32 0, null, metadata !1131, i32 0, i32 0} ; [ DW_TAG_subroutine_type ]
!1131 = metadata !{null, metadata !1132}
!1132 = metadata !{i32 786447, i32 0, metadata !"", i32 0, i32 0, i64 64, i64 64, i64 0, i32 64, metadata !1116} ; [ DW_TAG_pointer_type ]
!1133 = metadata !{i32 786478, i32 0, metadata !1116, metadata !"ap_int_base", metadata !"ap_int_base", metadata !"", metadata !79, i32 1460, metadata !1134, i1 false, i1 false, i32 0, i32 0, null, i32 384, i1 false, null, null, i32 0, metadata !91, i32 1460} ; [ DW_TAG_subprogram ]
!1134 = metadata !{i32 786453, i32 0, metadata !"", i32 0, i32 0, i64 0, i64 0, i64 0, i32 0, null, metadata !1135, i32 0, i32 0} ; [ DW_TAG_subroutine_type ]
!1135 = metadata !{null, metadata !1132, metadata !101}
!1136 = metadata !{i32 786478, i32 0, metadata !1116, metadata !"ap_int_base", metadata !"ap_int_base", metadata !"", metadata !79, i32 1461, metadata !1137, i1 false, i1 false, i32 0, i32 0, null, i32 384, i1 false, null, null, i32 0, metadata !91, i32 1461} ; [ DW_TAG_subprogram ]
!1137 = metadata !{i32 786453, i32 0, metadata !"", i32 0, i32 0, i64 0, i64 0, i64 0, i32 0, null, metadata !1138, i32 0, i32 0} ; [ DW_TAG_subroutine_type ]
!1138 = metadata !{null, metadata !1132, metadata !126}
!1139 = metadata !{i32 786478, i32 0, metadata !1116, metadata !"ap_int_base", metadata !"ap_int_base", metadata !"", metadata !79, i32 1462, metadata !1140, i1 false, i1 false, i32 0, i32 0, null, i32 384, i1 false, null, null, i32 0, metadata !91, i32 1462} ; [ DW_TAG_subprogram ]
!1140 = metadata !{i32 786453, i32 0, metadata !"", i32 0, i32 0, i64 0, i64 0, i64 0, i32 0, null, metadata !1141, i32 0, i32 0} ; [ DW_TAG_subroutine_type ]
!1141 = metadata !{null, metadata !1132, metadata !130}
!1142 = metadata !{i32 786478, i32 0, metadata !1116, metadata !"ap_int_base", metadata !"ap_int_base", metadata !"", metadata !79, i32 1463, metadata !1143, i1 false, i1 false, i32 0, i32 0, null, i32 384, i1 false, null, null, i32 0, metadata !91, i32 1463} ; [ DW_TAG_subprogram ]
!1143 = metadata !{i32 786453, i32 0, metadata !"", i32 0, i32 0, i64 0, i64 0, i64 0, i32 0, null, metadata !1144, i32 0, i32 0} ; [ DW_TAG_subroutine_type ]
!1144 = metadata !{null, metadata !1132, metadata !134}
!1145 = metadata !{i32 786478, i32 0, metadata !1116, metadata !"ap_int_base", metadata !"ap_int_base", metadata !"", metadata !79, i32 1464, metadata !1146, i1 false, i1 false, i32 0, i32 0, null, i32 384, i1 false, null, null, i32 0, metadata !91, i32 1464} ; [ DW_TAG_subprogram ]
!1146 = metadata !{i32 786453, i32 0, metadata !"", i32 0, i32 0, i64 0, i64 0, i64 0, i32 0, null, metadata !1147, i32 0, i32 0} ; [ DW_TAG_subroutine_type ]
!1147 = metadata !{null, metadata !1132, metadata !138}
!1148 = metadata !{i32 786478, i32 0, metadata !1116, metadata !"ap_int_base", metadata !"ap_int_base", metadata !"", metadata !79, i32 1465, metadata !1149, i1 false, i1 false, i32 0, i32 0, null, i32 384, i1 false, null, null, i32 0, metadata !91, i32 1465} ; [ DW_TAG_subprogram ]
!1149 = metadata !{i32 786453, i32 0, metadata !"", i32 0, i32 0, i64 0, i64 0, i64 0, i32 0, null, metadata !1150, i32 0, i32 0} ; [ DW_TAG_subroutine_type ]
!1150 = metadata !{null, metadata !1132, metadata !71}
!1151 = metadata !{i32 786478, i32 0, metadata !1116, metadata !"ap_int_base", metadata !"ap_int_base", metadata !"", metadata !79, i32 1466, metadata !1152, i1 false, i1 false, i32 0, i32 0, null, i32 384, i1 false, null, null, i32 0, metadata !91, i32 1466} ; [ DW_TAG_subprogram ]
!1152 = metadata !{i32 786453, i32 0, metadata !"", i32 0, i32 0, i64 0, i64 0, i64 0, i32 0, null, metadata !1153, i32 0, i32 0} ; [ DW_TAG_subroutine_type ]
!1153 = metadata !{null, metadata !1132, metadata !145}
!1154 = metadata !{i32 786478, i32 0, metadata !1116, metadata !"ap_int_base", metadata !"ap_int_base", metadata !"", metadata !79, i32 1467, metadata !1155, i1 false, i1 false, i32 0, i32 0, null, i32 384, i1 false, null, null, i32 0, metadata !91, i32 1467} ; [ DW_TAG_subprogram ]
!1155 = metadata !{i32 786453, i32 0, metadata !"", i32 0, i32 0, i64 0, i64 0, i64 0, i32 0, null, metadata !1156, i32 0, i32 0} ; [ DW_TAG_subroutine_type ]
!1156 = metadata !{null, metadata !1132, metadata !149}
!1157 = metadata !{i32 786478, i32 0, metadata !1116, metadata !"ap_int_base", metadata !"ap_int_base", metadata !"", metadata !79, i32 1468, metadata !1158, i1 false, i1 false, i32 0, i32 0, null, i32 384, i1 false, null, null, i32 0, metadata !91, i32 1468} ; [ DW_TAG_subprogram ]
!1158 = metadata !{i32 786453, i32 0, metadata !"", i32 0, i32 0, i64 0, i64 0, i64 0, i32 0, null, metadata !1159, i32 0, i32 0} ; [ DW_TAG_subroutine_type ]
!1159 = metadata !{null, metadata !1132, metadata !153}
!1160 = metadata !{i32 786478, i32 0, metadata !1116, metadata !"ap_int_base", metadata !"ap_int_base", metadata !"", metadata !79, i32 1469, metadata !1161, i1 false, i1 false, i32 0, i32 0, null, i32 384, i1 false, null, null, i32 0, metadata !91, i32 1469} ; [ DW_TAG_subprogram ]
!1161 = metadata !{i32 786453, i32 0, metadata !"", i32 0, i32 0, i64 0, i64 0, i64 0, i32 0, null, metadata !1162, i32 0, i32 0} ; [ DW_TAG_subroutine_type ]
!1162 = metadata !{null, metadata !1132, metadata !157}
!1163 = metadata !{i32 786478, i32 0, metadata !1116, metadata !"ap_int_base", metadata !"ap_int_base", metadata !"", metadata !79, i32 1470, metadata !1164, i1 false, i1 false, i32 0, i32 0, null, i32 384, i1 false, null, null, i32 0, metadata !91, i32 1470} ; [ DW_TAG_subprogram ]
!1164 = metadata !{i32 786453, i32 0, metadata !"", i32 0, i32 0, i64 0, i64 0, i64 0, i32 0, null, metadata !1165, i32 0, i32 0} ; [ DW_TAG_subroutine_type ]
!1165 = metadata !{null, metadata !1132, metadata !162}
!1166 = metadata !{i32 786478, i32 0, metadata !1116, metadata !"ap_int_base", metadata !"ap_int_base", metadata !"", metadata !79, i32 1471, metadata !1167, i1 false, i1 false, i32 0, i32 0, null, i32 384, i1 false, null, null, i32 0, metadata !91, i32 1471} ; [ DW_TAG_subprogram ]
!1167 = metadata !{i32 786453, i32 0, metadata !"", i32 0, i32 0, i64 0, i64 0, i64 0, i32 0, null, metadata !1168, i32 0, i32 0} ; [ DW_TAG_subroutine_type ]
!1168 = metadata !{null, metadata !1132, metadata !167}
!1169 = metadata !{i32 786478, i32 0, metadata !1116, metadata !"ap_int_base", metadata !"ap_int_base", metadata !"", metadata !79, i32 1472, metadata !1170, i1 false, i1 false, i32 0, i32 0, null, i32 384, i1 false, null, null, i32 0, metadata !91, i32 1472} ; [ DW_TAG_subprogram ]
!1170 = metadata !{i32 786453, i32 0, metadata !"", i32 0, i32 0, i64 0, i64 0, i64 0, i32 0, null, metadata !1171, i32 0, i32 0} ; [ DW_TAG_subroutine_type ]
!1171 = metadata !{null, metadata !1132, metadata !171}
!1172 = metadata !{i32 786478, i32 0, metadata !1116, metadata !"ap_int_base", metadata !"ap_int_base", metadata !"", metadata !79, i32 1499, metadata !1173, i1 false, i1 false, i32 0, i32 0, null, i32 256, i1 false, null, null, i32 0, metadata !91, i32 1499} ; [ DW_TAG_subprogram ]
!1173 = metadata !{i32 786453, i32 0, metadata !"", i32 0, i32 0, i64 0, i64 0, i64 0, i32 0, null, metadata !1174, i32 0, i32 0} ; [ DW_TAG_subroutine_type ]
!1174 = metadata !{null, metadata !1132, metadata !175}
!1175 = metadata !{i32 786478, i32 0, metadata !1116, metadata !"ap_int_base", metadata !"ap_int_base", metadata !"", metadata !79, i32 1506, metadata !1176, i1 false, i1 false, i32 0, i32 0, null, i32 256, i1 false, null, null, i32 0, metadata !91, i32 1506} ; [ DW_TAG_subprogram ]
!1176 = metadata !{i32 786453, i32 0, metadata !"", i32 0, i32 0, i64 0, i64 0, i64 0, i32 0, null, metadata !1177, i32 0, i32 0} ; [ DW_TAG_subroutine_type ]
!1177 = metadata !{null, metadata !1132, metadata !175, metadata !126}
!1178 = metadata !{i32 786478, i32 0, metadata !1116, metadata !"read", metadata !"read", metadata !"_ZNV11ap_int_baseILi16ELb0ELb1EE4readEv", metadata !79, i32 1527, metadata !1179, i1 false, i1 false, i32 0, i32 0, null, i32 256, i1 false, null, null, i32 0, metadata !91, i32 1527} ; [ DW_TAG_subprogram ]
!1179 = metadata !{i32 786453, i32 0, metadata !"", i32 0, i32 0, i64 0, i64 0, i64 0, i32 0, null, metadata !1180, i32 0, i32 0} ; [ DW_TAG_subroutine_type ]
!1180 = metadata !{metadata !1116, metadata !1181}
!1181 = metadata !{i32 786447, i32 0, metadata !"", i32 0, i32 0, i64 64, i64 64, i64 0, i32 64, metadata !1182} ; [ DW_TAG_pointer_type ]
!1182 = metadata !{i32 786485, null, metadata !"", null, i32 0, i64 0, i64 0, i64 0, i32 0, metadata !1116} ; [ DW_TAG_volatile_type ]
!1183 = metadata !{i32 786478, i32 0, metadata !1116, metadata !"write", metadata !"write", metadata !"_ZNV11ap_int_baseILi16ELb0ELb1EE5writeERKS0_", metadata !79, i32 1533, metadata !1184, i1 false, i1 false, i32 0, i32 0, null, i32 256, i1 false, null, null, i32 0, metadata !91, i32 1533} ; [ DW_TAG_subprogram ]
!1184 = metadata !{i32 786453, i32 0, metadata !"", i32 0, i32 0, i64 0, i64 0, i64 0, i32 0, null, metadata !1185, i32 0, i32 0} ; [ DW_TAG_subroutine_type ]
!1185 = metadata !{null, metadata !1181, metadata !1186}
!1186 = metadata !{i32 786448, null, null, null, i32 0, i64 0, i64 0, i64 0, i32 0, metadata !1187} ; [ DW_TAG_reference_type ]
!1187 = metadata !{i32 786470, null, metadata !"", null, i32 0, i64 0, i64 0, i64 0, i32 0, metadata !1116} ; [ DW_TAG_const_type ]
!1188 = metadata !{i32 786478, i32 0, metadata !1116, metadata !"operator=", metadata !"operator=", metadata !"_ZNV11ap_int_baseILi16ELb0ELb1EEaSERVKS0_", metadata !79, i32 1545, metadata !1189, i1 false, i1 false, i32 0, i32 0, null, i32 256, i1 false, null, null, i32 0, metadata !91, i32 1545} ; [ DW_TAG_subprogram ]
!1189 = metadata !{i32 786453, i32 0, metadata !"", i32 0, i32 0, i64 0, i64 0, i64 0, i32 0, null, metadata !1190, i32 0, i32 0} ; [ DW_TAG_subroutine_type ]
!1190 = metadata !{null, metadata !1181, metadata !1191}
!1191 = metadata !{i32 786448, null, null, null, i32 0, i64 0, i64 0, i64 0, i32 0, metadata !1192} ; [ DW_TAG_reference_type ]
!1192 = metadata !{i32 786470, null, metadata !"", null, i32 0, i64 0, i64 0, i64 0, i32 0, metadata !1182} ; [ DW_TAG_const_type ]
!1193 = metadata !{i32 786478, i32 0, metadata !1116, metadata !"operator=", metadata !"operator=", metadata !"_ZNV11ap_int_baseILi16ELb0ELb1EEaSERKS0_", metadata !79, i32 1554, metadata !1184, i1 false, i1 false, i32 0, i32 0, null, i32 256, i1 false, null, null, i32 0, metadata !91, i32 1554} ; [ DW_TAG_subprogram ]
!1194 = metadata !{i32 786478, i32 0, metadata !1116, metadata !"operator=", metadata !"operator=", metadata !"_ZN11ap_int_baseILi16ELb0ELb1EEaSERVKS0_", metadata !79, i32 1577, metadata !1195, i1 false, i1 false, i32 0, i32 0, null, i32 256, i1 false, null, null, i32 0, metadata !91, i32 1577} ; [ DW_TAG_subprogram ]
!1195 = metadata !{i32 786453, i32 0, metadata !"", i32 0, i32 0, i64 0, i64 0, i64 0, i32 0, null, metadata !1196, i32 0, i32 0} ; [ DW_TAG_subroutine_type ]
!1196 = metadata !{metadata !1197, metadata !1132, metadata !1191}
!1197 = metadata !{i32 786448, null, null, null, i32 0, i64 0, i64 0, i64 0, i32 0, metadata !1116} ; [ DW_TAG_reference_type ]
!1198 = metadata !{i32 786478, i32 0, metadata !1116, metadata !"operator=", metadata !"operator=", metadata !"_ZN11ap_int_baseILi16ELb0ELb1EEaSERKS0_", metadata !79, i32 1582, metadata !1199, i1 false, i1 false, i32 0, i32 0, null, i32 256, i1 false, null, null, i32 0, metadata !91, i32 1582} ; [ DW_TAG_subprogram ]
!1199 = metadata !{i32 786453, i32 0, metadata !"", i32 0, i32 0, i64 0, i64 0, i64 0, i32 0, null, metadata !1200, i32 0, i32 0} ; [ DW_TAG_subroutine_type ]
!1200 = metadata !{metadata !1197, metadata !1132, metadata !1186}
!1201 = metadata !{i32 786478, i32 0, metadata !1116, metadata !"operator=", metadata !"operator=", metadata !"_ZN11ap_int_baseILi16ELb0ELb1EEaSEPKc", metadata !79, i32 1586, metadata !1202, i1 false, i1 false, i32 0, i32 0, null, i32 256, i1 false, null, null, i32 0, metadata !91, i32 1586} ; [ DW_TAG_subprogram ]
!1202 = metadata !{i32 786453, i32 0, metadata !"", i32 0, i32 0, i64 0, i64 0, i64 0, i32 0, null, metadata !1203, i32 0, i32 0} ; [ DW_TAG_subroutine_type ]
!1203 = metadata !{metadata !1197, metadata !1132, metadata !175}
!1204 = metadata !{i32 786478, i32 0, metadata !1116, metadata !"set", metadata !"set", metadata !"_ZN11ap_int_baseILi16ELb0ELb1EE3setEPKca", metadata !79, i32 1594, metadata !1205, i1 false, i1 false, i32 0, i32 0, null, i32 256, i1 false, null, null, i32 0, metadata !91, i32 1594} ; [ DW_TAG_subprogram ]
!1205 = metadata !{i32 786453, i32 0, metadata !"", i32 0, i32 0, i64 0, i64 0, i64 0, i32 0, null, metadata !1206, i32 0, i32 0} ; [ DW_TAG_subroutine_type ]
!1206 = metadata !{metadata !1197, metadata !1132, metadata !175, metadata !126}
!1207 = metadata !{i32 786478, i32 0, metadata !1116, metadata !"operator=", metadata !"operator=", metadata !"_ZN11ap_int_baseILi16ELb0ELb1EEaSEa", metadata !79, i32 1608, metadata !1208, i1 false, i1 false, i32 0, i32 0, null, i32 256, i1 false, null, null, i32 0, metadata !91, i32 1608} ; [ DW_TAG_subprogram ]
!1208 = metadata !{i32 786453, i32 0, metadata !"", i32 0, i32 0, i64 0, i64 0, i64 0, i32 0, null, metadata !1209, i32 0, i32 0} ; [ DW_TAG_subroutine_type ]
!1209 = metadata !{metadata !1197, metadata !1132, metadata !126}
!1210 = metadata !{i32 786478, i32 0, metadata !1116, metadata !"operator=", metadata !"operator=", metadata !"_ZN11ap_int_baseILi16ELb0ELb1EEaSEh", metadata !79, i32 1609, metadata !1211, i1 false, i1 false, i32 0, i32 0, null, i32 256, i1 false, null, null, i32 0, metadata !91, i32 1609} ; [ DW_TAG_subprogram ]
!1211 = metadata !{i32 786453, i32 0, metadata !"", i32 0, i32 0, i64 0, i64 0, i64 0, i32 0, null, metadata !1212, i32 0, i32 0} ; [ DW_TAG_subroutine_type ]
!1212 = metadata !{metadata !1197, metadata !1132, metadata !130}
!1213 = metadata !{i32 786478, i32 0, metadata !1116, metadata !"operator=", metadata !"operator=", metadata !"_ZN11ap_int_baseILi16ELb0ELb1EEaSEs", metadata !79, i32 1610, metadata !1214, i1 false, i1 false, i32 0, i32 0, null, i32 256, i1 false, null, null, i32 0, metadata !91, i32 1610} ; [ DW_TAG_subprogram ]
!1214 = metadata !{i32 786453, i32 0, metadata !"", i32 0, i32 0, i64 0, i64 0, i64 0, i32 0, null, metadata !1215, i32 0, i32 0} ; [ DW_TAG_subroutine_type ]
!1215 = metadata !{metadata !1197, metadata !1132, metadata !134}
!1216 = metadata !{i32 786478, i32 0, metadata !1116, metadata !"operator=", metadata !"operator=", metadata !"_ZN11ap_int_baseILi16ELb0ELb1EEaSEt", metadata !79, i32 1611, metadata !1217, i1 false, i1 false, i32 0, i32 0, null, i32 256, i1 false, null, null, i32 0, metadata !91, i32 1611} ; [ DW_TAG_subprogram ]
!1217 = metadata !{i32 786453, i32 0, metadata !"", i32 0, i32 0, i64 0, i64 0, i64 0, i32 0, null, metadata !1218, i32 0, i32 0} ; [ DW_TAG_subroutine_type ]
!1218 = metadata !{metadata !1197, metadata !1132, metadata !138}
!1219 = metadata !{i32 786478, i32 0, metadata !1116, metadata !"operator=", metadata !"operator=", metadata !"_ZN11ap_int_baseILi16ELb0ELb1EEaSEi", metadata !79, i32 1612, metadata !1220, i1 false, i1 false, i32 0, i32 0, null, i32 256, i1 false, null, null, i32 0, metadata !91, i32 1612} ; [ DW_TAG_subprogram ]
!1220 = metadata !{i32 786453, i32 0, metadata !"", i32 0, i32 0, i64 0, i64 0, i64 0, i32 0, null, metadata !1221, i32 0, i32 0} ; [ DW_TAG_subroutine_type ]
!1221 = metadata !{metadata !1197, metadata !1132, metadata !71}
!1222 = metadata !{i32 786478, i32 0, metadata !1116, metadata !"operator=", metadata !"operator=", metadata !"_ZN11ap_int_baseILi16ELb0ELb1EEaSEj", metadata !79, i32 1613, metadata !1223, i1 false, i1 false, i32 0, i32 0, null, i32 256, i1 false, null, null, i32 0, metadata !91, i32 1613} ; [ DW_TAG_subprogram ]
!1223 = metadata !{i32 786453, i32 0, metadata !"", i32 0, i32 0, i64 0, i64 0, i64 0, i32 0, null, metadata !1224, i32 0, i32 0} ; [ DW_TAG_subroutine_type ]
!1224 = metadata !{metadata !1197, metadata !1132, metadata !145}
!1225 = metadata !{i32 786478, i32 0, metadata !1116, metadata !"operator=", metadata !"operator=", metadata !"_ZN11ap_int_baseILi16ELb0ELb1EEaSEx", metadata !79, i32 1614, metadata !1226, i1 false, i1 false, i32 0, i32 0, null, i32 256, i1 false, null, null, i32 0, metadata !91, i32 1614} ; [ DW_TAG_subprogram ]
!1226 = metadata !{i32 786453, i32 0, metadata !"", i32 0, i32 0, i64 0, i64 0, i64 0, i32 0, null, metadata !1227, i32 0, i32 0} ; [ DW_TAG_subroutine_type ]
!1227 = metadata !{metadata !1197, metadata !1132, metadata !157}
!1228 = metadata !{i32 786478, i32 0, metadata !1116, metadata !"operator=", metadata !"operator=", metadata !"_ZN11ap_int_baseILi16ELb0ELb1EEaSEy", metadata !79, i32 1615, metadata !1229, i1 false, i1 false, i32 0, i32 0, null, i32 256, i1 false, null, null, i32 0, metadata !91, i32 1615} ; [ DW_TAG_subprogram ]
!1229 = metadata !{i32 786453, i32 0, metadata !"", i32 0, i32 0, i64 0, i64 0, i64 0, i32 0, null, metadata !1230, i32 0, i32 0} ; [ DW_TAG_subroutine_type ]
!1230 = metadata !{metadata !1197, metadata !1132, metadata !162}
!1231 = metadata !{i32 786478, i32 0, metadata !1116, metadata !"operator unsigned short", metadata !"operator unsigned short", metadata !"_ZNK11ap_int_baseILi16ELb0ELb1EEcvtEv", metadata !79, i32 1653, metadata !1232, i1 false, i1 false, i32 0, i32 0, null, i32 256, i1 false, null, null, i32 0, metadata !91, i32 1653} ; [ DW_TAG_subprogram ]
!1232 = metadata !{i32 786453, i32 0, metadata !"", i32 0, i32 0, i64 0, i64 0, i64 0, i32 0, null, metadata !1233, i32 0, i32 0} ; [ DW_TAG_subroutine_type ]
!1233 = metadata !{metadata !1234, metadata !1238}
!1234 = metadata !{i32 786454, metadata !1116, metadata !"RetType", metadata !79, i32 1402, i64 0, i64 0, i64 0, i32 0, metadata !1235} ; [ DW_TAG_typedef ]
!1235 = metadata !{i32 786454, metadata !1236, metadata !"Type", metadata !79, i32 1376, i64 0, i64 0, i64 0, i32 0, metadata !138} ; [ DW_TAG_typedef ]
!1236 = metadata !{i32 786434, null, metadata !"retval<2, false>", metadata !79, i32 1375, i64 8, i64 8, i32 0, i32 0, null, metadata !235, i32 0, null, metadata !1237} ; [ DW_TAG_class_type ]
!1237 = metadata !{metadata !844, metadata !100}
!1238 = metadata !{i32 786447, i32 0, metadata !"", i32 0, i32 0, i64 64, i64 64, i64 0, i32 64, metadata !1187} ; [ DW_TAG_pointer_type ]
!1239 = metadata !{i32 786478, i32 0, metadata !1116, metadata !"to_bool", metadata !"to_bool", metadata !"_ZNK11ap_int_baseILi16ELb0ELb1EE7to_boolEv", metadata !79, i32 1659, metadata !1240, i1 false, i1 false, i32 0, i32 0, null, i32 256, i1 false, null, null, i32 0, metadata !91, i32 1659} ; [ DW_TAG_subprogram ]
!1240 = metadata !{i32 786453, i32 0, metadata !"", i32 0, i32 0, i64 0, i64 0, i64 0, i32 0, null, metadata !1241, i32 0, i32 0} ; [ DW_TAG_subroutine_type ]
!1241 = metadata !{metadata !101, metadata !1238}
!1242 = metadata !{i32 786478, i32 0, metadata !1116, metadata !"to_uchar", metadata !"to_uchar", metadata !"_ZNK11ap_int_baseILi16ELb0ELb1EE8to_ucharEv", metadata !79, i32 1660, metadata !1243, i1 false, i1 false, i32 0, i32 0, null, i32 256, i1 false, null, null, i32 0, metadata !91, i32 1660} ; [ DW_TAG_subprogram ]
!1243 = metadata !{i32 786453, i32 0, metadata !"", i32 0, i32 0, i64 0, i64 0, i64 0, i32 0, null, metadata !1244, i32 0, i32 0} ; [ DW_TAG_subroutine_type ]
!1244 = metadata !{metadata !130, metadata !1238}
!1245 = metadata !{i32 786478, i32 0, metadata !1116, metadata !"to_char", metadata !"to_char", metadata !"_ZNK11ap_int_baseILi16ELb0ELb1EE7to_charEv", metadata !79, i32 1661, metadata !1246, i1 false, i1 false, i32 0, i32 0, null, i32 256, i1 false, null, null, i32 0, metadata !91, i32 1661} ; [ DW_TAG_subprogram ]
!1246 = metadata !{i32 786453, i32 0, metadata !"", i32 0, i32 0, i64 0, i64 0, i64 0, i32 0, null, metadata !1247, i32 0, i32 0} ; [ DW_TAG_subroutine_type ]
!1247 = metadata !{metadata !126, metadata !1238}
!1248 = metadata !{i32 786478, i32 0, metadata !1116, metadata !"to_ushort", metadata !"to_ushort", metadata !"_ZNK11ap_int_baseILi16ELb0ELb1EE9to_ushortEv", metadata !79, i32 1662, metadata !1249, i1 false, i1 false, i32 0, i32 0, null, i32 256, i1 false, null, null, i32 0, metadata !91, i32 1662} ; [ DW_TAG_subprogram ]
!1249 = metadata !{i32 786453, i32 0, metadata !"", i32 0, i32 0, i64 0, i64 0, i64 0, i32 0, null, metadata !1250, i32 0, i32 0} ; [ DW_TAG_subroutine_type ]
!1250 = metadata !{metadata !138, metadata !1238}
!1251 = metadata !{i32 786478, i32 0, metadata !1116, metadata !"to_short", metadata !"to_short", metadata !"_ZNK11ap_int_baseILi16ELb0ELb1EE8to_shortEv", metadata !79, i32 1663, metadata !1252, i1 false, i1 false, i32 0, i32 0, null, i32 256, i1 false, null, null, i32 0, metadata !91, i32 1663} ; [ DW_TAG_subprogram ]
!1252 = metadata !{i32 786453, i32 0, metadata !"", i32 0, i32 0, i64 0, i64 0, i64 0, i32 0, null, metadata !1253, i32 0, i32 0} ; [ DW_TAG_subroutine_type ]
!1253 = metadata !{metadata !134, metadata !1238}
!1254 = metadata !{i32 786478, i32 0, metadata !1116, metadata !"to_int", metadata !"to_int", metadata !"_ZNK11ap_int_baseILi16ELb0ELb1EE6to_intEv", metadata !79, i32 1664, metadata !1255, i1 false, i1 false, i32 0, i32 0, null, i32 256, i1 false, null, null, i32 0, metadata !91, i32 1664} ; [ DW_TAG_subprogram ]
!1255 = metadata !{i32 786453, i32 0, metadata !"", i32 0, i32 0, i64 0, i64 0, i64 0, i32 0, null, metadata !1256, i32 0, i32 0} ; [ DW_TAG_subroutine_type ]
!1256 = metadata !{metadata !71, metadata !1238}
!1257 = metadata !{i32 786478, i32 0, metadata !1116, metadata !"to_uint", metadata !"to_uint", metadata !"_ZNK11ap_int_baseILi16ELb0ELb1EE7to_uintEv", metadata !79, i32 1665, metadata !1258, i1 false, i1 false, i32 0, i32 0, null, i32 256, i1 false, null, null, i32 0, metadata !91, i32 1665} ; [ DW_TAG_subprogram ]
